   1              		.syntax unified
   2              		.cpu cortex-m4
   3              		.fpu softvfp
   4              		.eabi_attribute 20, 1
   5              		.eabi_attribute 21, 1
   6              		.eabi_attribute 23, 3
   7              		.eabi_attribute 24, 1
   8              		.eabi_attribute 25, 1
   9              		.eabi_attribute 26, 1
  10              		.eabi_attribute 30, 6
  11              		.eabi_attribute 34, 1
  12              		.eabi_attribute 18, 4
  13              		.thumb
  14              		.file	"OdometryGPIO.c"
  15              		.text
  16              	.Ltext0:
  17              		.cfi_sections	.debug_frame
  18              		.section	.bss.DeviceDataPrv__DEFAULT_RTOS_ALLOC,"aw",%nobits
  19              		.align	2
  22              	DeviceDataPrv__DEFAULT_RTOS_ALLOC:
  23 0000 00000000 		.space	8
  23      00000000 
  24              		.section	.bss.INT_PORTD__DEFAULT_RTOS_ISRPARAM,"aw",%nobits
  25              		.align	2
  28              	INT_PORTD__DEFAULT_RTOS_ISRPARAM:
  29 0000 00000000 		.space	4
  30              		.section	.text.OdometryGPIO_Init,"ax",%progbits
  31              		.align	2
  32              		.global	OdometryGPIO_Init
  33              		.thumb
  34              		.thumb_func
  36              	OdometryGPIO_Init:
  37              	.LFB0:
  38              		.file 1 "../Generated_Code/OdometryGPIO.c"
   1:../Generated_Code/OdometryGPIO.c **** /** ###################################################################
   2:../Generated_Code/OdometryGPIO.c **** **     THIS COMPONENT MODULE IS GENERATED BY THE TOOL. DO NOT MODIFY IT.
   3:../Generated_Code/OdometryGPIO.c **** **     Filename    : OdometryGPIO.c
   4:../Generated_Code/OdometryGPIO.c **** **     Project     : ProcessorExpert
   5:../Generated_Code/OdometryGPIO.c **** **     Processor   : MK40DX256ZVLQ10
   6:../Generated_Code/OdometryGPIO.c **** **     Component   : GPIO_LDD
   7:../Generated_Code/OdometryGPIO.c **** **     Version     : Component 01.126, Driver 01.06, CPU db: 3.00.001
   8:../Generated_Code/OdometryGPIO.c **** **     Compiler    : GNU C Compiler
   9:../Generated_Code/OdometryGPIO.c **** **     Date/Time   : 2013-04-13, 21:57, # CodeGen: 105
  10:../Generated_Code/OdometryGPIO.c **** **     Abstract    :
  11:../Generated_Code/OdometryGPIO.c **** **         The HAL GPIO component will provide a low level API for unified
  12:../Generated_Code/OdometryGPIO.c **** **         access to general purpose digital input/output pins across
  13:../Generated_Code/OdometryGPIO.c **** **         various device designs.
  14:../Generated_Code/OdometryGPIO.c **** **
  15:../Generated_Code/OdometryGPIO.c **** **         RTOS drivers using HAL GPIO API will be simpler and more
  16:../Generated_Code/OdometryGPIO.c **** **         portable to various microprocessors.
  17:../Generated_Code/OdometryGPIO.c **** **     Settings    :
  18:../Generated_Code/OdometryGPIO.c **** **          Component name                                 : OdometryGPIO
  19:../Generated_Code/OdometryGPIO.c **** **          Port                                           : PTD
  20:../Generated_Code/OdometryGPIO.c **** **          Port width                                     : 32 bits
  21:../Generated_Code/OdometryGPIO.c **** **          Mask of allocated pins                         : 40
  22:../Generated_Code/OdometryGPIO.c **** **          Interrupt service/event                        : Enabled
  23:../Generated_Code/OdometryGPIO.c **** **            Interrupt                                    : INT_PORTD
  24:../Generated_Code/OdometryGPIO.c **** **            Interrupt priority                           : medium priority
  25:../Generated_Code/OdometryGPIO.c **** **          Bit fields                                     : 1
  26:../Generated_Code/OdometryGPIO.c **** **            Bit field                                    : 
  27:../Generated_Code/OdometryGPIO.c **** **              Field name                                 : OdometryRightPin
  28:../Generated_Code/OdometryGPIO.c **** **              Pins                                       : 1
  29:../Generated_Code/OdometryGPIO.c **** **                Pin                                      : 
  30:../Generated_Code/OdometryGPIO.c **** **                  Pin                                    : PTD6/SPI0_PCS3/UART0_RX/FTM0_CH6/FTM0_
  31:../Generated_Code/OdometryGPIO.c **** **                  Pin signal                             : 
  32:../Generated_Code/OdometryGPIO.c **** **                  Initial pin direction                  : Input
  33:../Generated_Code/OdometryGPIO.c **** **                  Initial pin event                      : Both edges
  34:../Generated_Code/OdometryGPIO.c **** **                  Lock initialization function           : no
  35:../Generated_Code/OdometryGPIO.c **** **          Initialization                                 : 
  36:../Generated_Code/OdometryGPIO.c **** **            Auto initialization                          : yes
  37:../Generated_Code/OdometryGPIO.c **** **            Event mask                                   : 
  38:../Generated_Code/OdometryGPIO.c **** **              OnPortEvent                                : Enabled
  39:../Generated_Code/OdometryGPIO.c **** **     Contents    :
  40:../Generated_Code/OdometryGPIO.c **** **         Init                    - LDD_TDeviceData* OdometryGPIO_Init(LDD_TUserData *UserDataPtr)
  41:../Generated_Code/OdometryGPIO.c **** **         Deinit                  - void OdometryGPIO_Deinit(LDD_TDeviceData *DeviceDataPtr);
  42:../Generated_Code/OdometryGPIO.c **** **         SetFieldValue           - void OdometryGPIO_SetFieldValue(LDD_TDeviceData *DeviceDataPtr
  43:../Generated_Code/OdometryGPIO.c **** **         GetFieldValue           - OdometryGPIO_TFieldValue OdometryGPIO_GetFieldValue(LDD_TDevic
  44:../Generated_Code/OdometryGPIO.c **** **         ClearFieldBits          - void OdometryGPIO_ClearFieldBits(LDD_TDeviceData *DeviceDataPt
  45:../Generated_Code/OdometryGPIO.c **** **         SetFieldBits            - void OdometryGPIO_SetFieldBits(LDD_TDeviceData *DeviceDataPtr,
  46:../Generated_Code/OdometryGPIO.c **** **         ToggleFieldBits         - void OdometryGPIO_ToggleFieldBits(LDD_TDeviceData *DeviceDataP
  47:../Generated_Code/OdometryGPIO.c **** **         SetFieldInputDirection  - void OdometryGPIO_SetFieldInputDirection(LDD_TDeviceData *Devi
  48:../Generated_Code/OdometryGPIO.c **** **         SetFieldOutputDirection - void OdometryGPIO_SetFieldOutputDirection(LDD_TDeviceData *Dev
  49:../Generated_Code/OdometryGPIO.c **** **         ConnectPin              - LDD_TError OdometryGPIO_ConnectPin(LDD_TDeviceData *DeviceData
  50:../Generated_Code/OdometryGPIO.c **** **
  51:../Generated_Code/OdometryGPIO.c **** **     Copyright : 1997 - 2012 Freescale, Inc. All Rights Reserved.
  52:../Generated_Code/OdometryGPIO.c **** **     
  53:../Generated_Code/OdometryGPIO.c **** **     http      : www.freescale.com
  54:../Generated_Code/OdometryGPIO.c **** **     mail      : support@freescale.com
  55:../Generated_Code/OdometryGPIO.c **** ** ###################################################################*/
  56:../Generated_Code/OdometryGPIO.c **** 
  57:../Generated_Code/OdometryGPIO.c **** /* MODULE OdometryGPIO. */
  58:../Generated_Code/OdometryGPIO.c **** 
  59:../Generated_Code/OdometryGPIO.c **** #include "Events.h"
  60:../Generated_Code/OdometryGPIO.c **** #include "OdometryGPIO.h"
  61:../Generated_Code/OdometryGPIO.c **** /* {Default RTOS Adapter} No RTOS includes */
  62:../Generated_Code/OdometryGPIO.c **** #include "IO_Map.h"
  63:../Generated_Code/OdometryGPIO.c **** 
  64:../Generated_Code/OdometryGPIO.c **** typedef struct {
  65:../Generated_Code/OdometryGPIO.c ****   OdometryGPIO_TPortValue EventFlags;  /* Holds event flags */
  66:../Generated_Code/OdometryGPIO.c ****   LDD_TUserData *UserData;             /* RTOS device data structure */
  67:../Generated_Code/OdometryGPIO.c **** } OdometryGPIO_TDeviceData, *OdometryGPIO_TDeviceDataPtr; /* Device data structure type */
  68:../Generated_Code/OdometryGPIO.c **** /* {Default RTOS Adapter} Static object used for simulation of dynamic driver memory allocation */
  69:../Generated_Code/OdometryGPIO.c **** static OdometryGPIO_TDeviceData DeviceDataPrv__DEFAULT_RTOS_ALLOC;
  70:../Generated_Code/OdometryGPIO.c **** /* {Default RTOS Adapter} Global variable used for passing a parameter into ISR */
  71:../Generated_Code/OdometryGPIO.c **** static OdometryGPIO_TDeviceData * INT_PORTD__DEFAULT_RTOS_ISRPARAM;
  72:../Generated_Code/OdometryGPIO.c **** /*
  73:../Generated_Code/OdometryGPIO.c **** ** ===================================================================
  74:../Generated_Code/OdometryGPIO.c **** **     Method      :  OdometryGPIO_Init (component GPIO_LDD)
  75:../Generated_Code/OdometryGPIO.c **** **
  76:../Generated_Code/OdometryGPIO.c **** **     Description :
  77:../Generated_Code/OdometryGPIO.c **** **         This method initializes the associated peripheral(s) and the
  78:../Generated_Code/OdometryGPIO.c **** **         component internal variables. The method is called
  79:../Generated_Code/OdometryGPIO.c **** **         automatically as a part of the application initialization
  80:../Generated_Code/OdometryGPIO.c **** **         code.
  81:../Generated_Code/OdometryGPIO.c **** **     Parameters  :
  82:../Generated_Code/OdometryGPIO.c **** **         NAME            - DESCRIPTION
  83:../Generated_Code/OdometryGPIO.c **** **       * UserDataPtr     - Pointer to the RTOS device
  84:../Generated_Code/OdometryGPIO.c **** **                           structure. This pointer will be passed to
  85:../Generated_Code/OdometryGPIO.c **** **                           all events as parameter.
  86:../Generated_Code/OdometryGPIO.c **** **     Returns     :
  87:../Generated_Code/OdometryGPIO.c **** **         ---             - Pointer to the dynamically allocated
  88:../Generated_Code/OdometryGPIO.c **** **                           private structure or NULL if there was an
  89:../Generated_Code/OdometryGPIO.c **** **                           error.
  90:../Generated_Code/OdometryGPIO.c **** ** ===================================================================
  91:../Generated_Code/OdometryGPIO.c **** */
  92:../Generated_Code/OdometryGPIO.c **** LDD_TDeviceData* OdometryGPIO_Init(LDD_TUserData *UserDataPtr)
  93:../Generated_Code/OdometryGPIO.c **** {
  39              		.loc 1 93 0
  40              		.cfi_startproc
  41              		@ args = 0, pretend = 0, frame = 16
  42              		@ frame_needed = 1, uses_anonymous_args = 0
  43              		@ link register save eliminated.
  44 0000 80B4     		push	{r7}
  45              	.LCFI0:
  46              		.cfi_def_cfa_offset 4
  47              		.cfi_offset 7, -4
  48 0002 85B0     		sub	sp, sp, #20
  49              	.LCFI1:
  50              		.cfi_def_cfa_offset 24
  51 0004 00AF     		add	r7, sp, #0
  52              	.LCFI2:
  53              		.cfi_def_cfa_register 7
  54 0006 7860     		str	r0, [r7, #4]
  94:../Generated_Code/OdometryGPIO.c ****   /* Allocate LDD device structure */
  95:../Generated_Code/OdometryGPIO.c ****   OdometryGPIO_TDeviceData *DeviceDataPrv;
  96:../Generated_Code/OdometryGPIO.c **** 
  97:../Generated_Code/OdometryGPIO.c ****   /* {Default RTOS Adapter} Driver memory allocation: Dynamic allocation is simulated by a pointer 
  98:../Generated_Code/OdometryGPIO.c ****   DeviceDataPrv = &DeviceDataPrv__DEFAULT_RTOS_ALLOC;
  55              		.loc 1 98 0
  56 0008 40F20003 		movw	r3, #:lower16:DeviceDataPrv__DEFAULT_RTOS_ALLOC
  57 000c C0F20003 		movt	r3, #:upper16:DeviceDataPrv__DEFAULT_RTOS_ALLOC
  58 0010 FB60     		str	r3, [r7, #12]
  99:../Generated_Code/OdometryGPIO.c ****   /* Save RTOS Device structure */
 100:../Generated_Code/OdometryGPIO.c ****   DeviceDataPrv->EventFlags = 0x00U;   /* Clears stored events */
  59              		.loc 1 100 0
  60 0012 FB68     		ldr	r3, [r7, #12]
  61 0014 4FF00002 		mov	r2, #0
  62 0018 1A60     		str	r2, [r3, #0]
 101:../Generated_Code/OdometryGPIO.c ****   DeviceDataPrv->UserData = UserDataPtr; /* Store the RTOS device structure */
  63              		.loc 1 101 0
  64 001a FB68     		ldr	r3, [r7, #12]
  65 001c 7A68     		ldr	r2, [r7, #4]
  66 001e 5A60     		str	r2, [r3, #4]
 102:../Generated_Code/OdometryGPIO.c ****   /* Interrupt vector(s) allocation */
 103:../Generated_Code/OdometryGPIO.c ****   /* {Default RTOS Adapter} Set interrupt vector: IVT is static, ISR parameter is passed by the glo
 104:../Generated_Code/OdometryGPIO.c ****   INT_PORTD__DEFAULT_RTOS_ISRPARAM = DeviceDataPrv;
  67              		.loc 1 104 0
  68 0020 40F20003 		movw	r3, #:lower16:INT_PORTD__DEFAULT_RTOS_ISRPARAM
  69 0024 C0F20003 		movt	r3, #:upper16:INT_PORTD__DEFAULT_RTOS_ISRPARAM
  70 0028 FA68     		ldr	r2, [r7, #12]
  71 002a 1A60     		str	r2, [r3, #0]
 105:../Generated_Code/OdometryGPIO.c ****   /* GPIOD_PDDR: PDD&=~0x40 */
 106:../Generated_Code/OdometryGPIO.c ****   GPIOD_PDDR &= (uint32_t)~(uint32_t)(GPIO_PDDR_PDD(0x40));                                        
  72              		.loc 1 106 0
  73 002c 4FF2C003 		movw	r3, #61632
  74 0030 C4F20F03 		movt	r3, 16399
  75 0034 4FF2C002 		movw	r2, #61632
  76 0038 C4F20F02 		movt	r2, 16399
  77 003c 5269     		ldr	r2, [r2, #20]
  78 003e 22F04002 		bic	r2, r2, #64
  79 0042 5A61     		str	r2, [r3, #20]
 107:../Generated_Code/OdometryGPIO.c ****   /* Initialization of Port Control registers */
 108:../Generated_Code/OdometryGPIO.c ****   /* PORTD_PCR6: ISF=0,LK=0,MUX=1 */
 109:../Generated_Code/OdometryGPIO.c ****   PORTD_PCR6 = (uint32_t)((PORTD_PCR6 & (uint32_t)~(uint32_t)(
  80              		.loc 1 109 0
  81 0044 4FF44042 		mov	r2, #49152
  82 0048 C4F20402 		movt	r2, 16388
  83 004c 4FF44043 		mov	r3, #49152
  84 0050 C4F20403 		movt	r3, 16388
  85 0054 9B69     		ldr	r3, [r3, #24]
  86 0056 1946     		mov	r1, r3
  87 0058 47F6FF03 		movw	r3, #30975
  88 005c CFF6FF63 		movt	r3, 65279
  89 0060 0B40     		ands	r3, r3, r1
  90 0062 43F48073 		orr	r3, r3, #256
  91 0066 9361     		str	r3, [r2, #24]
 110:../Generated_Code/OdometryGPIO.c ****                 PORT_PCR_ISF_MASK |
 111:../Generated_Code/OdometryGPIO.c ****                 PORT_PCR_LK_MASK |
 112:../Generated_Code/OdometryGPIO.c ****                 PORT_PCR_MUX(0x06)
 113:../Generated_Code/OdometryGPIO.c ****                )) | (uint32_t)(
 114:../Generated_Code/OdometryGPIO.c ****                 PORT_PCR_MUX(0x01)
 115:../Generated_Code/OdometryGPIO.c ****                ));                                                  
 116:../Generated_Code/OdometryGPIO.c ****   /* PORTD_PCR6: ISF=1,IRQC=0x0B */
 117:../Generated_Code/OdometryGPIO.c ****   PORTD_PCR6 = (uint32_t)((PORTD_PCR6 & (uint32_t)~(uint32_t)(
  92              		.loc 1 117 0
  93 0068 4FF44043 		mov	r3, #49152
  94 006c C4F20403 		movt	r3, 16388
  95 0070 4FF44042 		mov	r2, #49152
  96 0074 C4F20402 		movt	r2, 16388
  97 0078 9269     		ldr	r2, [r2, #24]
  98 007a 22F08672 		bic	r2, r2, #17563648
  99 007e 22F44032 		bic	r2, r2, #196608
 100 0082 42F08472 		orr	r2, r2, #17301504
 101 0086 42F44032 		orr	r2, r2, #196608
 102 008a 9A61     		str	r2, [r3, #24]
 118:../Generated_Code/OdometryGPIO.c ****                 PORT_PCR_IRQC(0x04)
 119:../Generated_Code/OdometryGPIO.c ****                )) | (uint32_t)(
 120:../Generated_Code/OdometryGPIO.c ****                 PORT_PCR_ISF_MASK |
 121:../Generated_Code/OdometryGPIO.c ****                 PORT_PCR_IRQC(0x0B)
 122:../Generated_Code/OdometryGPIO.c ****                ));                                                  
 123:../Generated_Code/OdometryGPIO.c ****   /* NVICIP90: PRI90=0x80 */
 124:../Generated_Code/OdometryGPIO.c ****   NVICIP90 = NVIC_IP_PRI90(0x80);                                                   
 103              		.loc 1 124 0
 104 008c 4FF46143 		mov	r3, #57600
 105 0090 CEF20003 		movt	r3, 57344
 106 0094 4FF08002 		mov	r2, #128
 107 0098 83F85A23 		strb	r2, [r3, #858]
 125:../Generated_Code/OdometryGPIO.c ****   /* NVICISER2: SETENA|=0x04000000 */
 126:../Generated_Code/OdometryGPIO.c ****   NVICISER2 |= NVIC_ISER_SETENA(0x04000000);                                                   
 108              		.loc 1 126 0
 109 009c 4FF46143 		mov	r3, #57600
 110 00a0 CEF20003 		movt	r3, 57344
 111 00a4 4FF46142 		mov	r2, #57600
 112 00a8 CEF20002 		movt	r2, 57344
 113 00ac 9268     		ldr	r2, [r2, #8]
 114 00ae 42F08062 		orr	r2, r2, #67108864
 115 00b2 9A60     		str	r2, [r3, #8]
 127:../Generated_Code/OdometryGPIO.c ****   /* Registration of the device structure */
 128:../Generated_Code/OdometryGPIO.c ****   PE_LDD_RegisterDeviceStructure(PE_LDD_COMPONENT_OdometryGPIO_ID,DeviceDataPrv);
 116              		.loc 1 128 0
 117 00b4 40F20003 		movw	r3, #:lower16:PE_LDD_DeviceDataList
 118 00b8 C0F20003 		movt	r3, #:upper16:PE_LDD_DeviceDataList
 119 00bc FA68     		ldr	r2, [r7, #12]
 120 00be DA60     		str	r2, [r3, #12]
 129:../Generated_Code/OdometryGPIO.c ****   return ((LDD_TDeviceData *)DeviceDataPrv);
 121              		.loc 1 129 0
 122 00c0 FB68     		ldr	r3, [r7, #12]
 130:../Generated_Code/OdometryGPIO.c **** }
 123              		.loc 1 130 0
 124 00c2 1846     		mov	r0, r3
 125 00c4 07F11407 		add	r7, r7, #20
 126 00c8 BD46     		mov	sp, r7
 127 00ca 80BC     		pop	{r7}
 128 00cc 7047     		bx	lr
 129              		.cfi_endproc
 130              	.LFE0:
 132 00ce 00BF     		.section	.text.OdometryGPIO_Deinit,"ax",%progbits
 133              		.align	2
 134              		.global	OdometryGPIO_Deinit
 135              		.thumb
 136              		.thumb_func
 138              	OdometryGPIO_Deinit:
 139              	.LFB1:
 131:../Generated_Code/OdometryGPIO.c **** 
 132:../Generated_Code/OdometryGPIO.c **** /*
 133:../Generated_Code/OdometryGPIO.c **** ** ===================================================================
 134:../Generated_Code/OdometryGPIO.c **** **     Method      :  OdometryGPIO_Deinit (component GPIO_LDD)
 135:../Generated_Code/OdometryGPIO.c **** **
 136:../Generated_Code/OdometryGPIO.c **** **     Description :
 137:../Generated_Code/OdometryGPIO.c **** **         This method disables the device and frees the device data
 138:../Generated_Code/OdometryGPIO.c **** **         structure memory.
 139:../Generated_Code/OdometryGPIO.c **** **     Parameters  :
 140:../Generated_Code/OdometryGPIO.c **** **         NAME            - DESCRIPTION
 141:../Generated_Code/OdometryGPIO.c **** **       * DeviceDataPtr   - Pointer to device data
 142:../Generated_Code/OdometryGPIO.c **** **                           structure pointer.
 143:../Generated_Code/OdometryGPIO.c **** **     Returns     : Nothing
 144:../Generated_Code/OdometryGPIO.c **** ** ===================================================================
 145:../Generated_Code/OdometryGPIO.c **** */
 146:../Generated_Code/OdometryGPIO.c **** void OdometryGPIO_Deinit(LDD_TDeviceData *DeviceDataPtr)
 147:../Generated_Code/OdometryGPIO.c **** {
 140              		.loc 1 147 0
 141              		.cfi_startproc
 142              		@ args = 0, pretend = 0, frame = 8
 143              		@ frame_needed = 1, uses_anonymous_args = 0
 144              		@ link register save eliminated.
 145 0000 80B4     		push	{r7}
 146              	.LCFI3:
 147              		.cfi_def_cfa_offset 4
 148              		.cfi_offset 7, -4
 149 0002 83B0     		sub	sp, sp, #12
 150              	.LCFI4:
 151              		.cfi_def_cfa_offset 16
 152 0004 00AF     		add	r7, sp, #0
 153              	.LCFI5:
 154              		.cfi_def_cfa_register 7
 155 0006 7860     		str	r0, [r7, #4]
 148:../Generated_Code/OdometryGPIO.c ****   (void)DeviceDataPtr;                 /* Parameter is not used, suppress unused argument warning *
 149:../Generated_Code/OdometryGPIO.c ****   /* PORTD_PCR6: IRQC=0 */
 150:../Generated_Code/OdometryGPIO.c ****   PORTD_PCR6 &= (uint32_t)~(uint32_t)(PORT_PCR_IRQC(0x0F));                                        
 156              		.loc 1 150 0
 157 0008 4FF44043 		mov	r3, #49152
 158 000c C4F20403 		movt	r3, 16388
 159 0010 4FF44042 		mov	r2, #49152
 160 0014 C4F20402 		movt	r2, 16388
 161 0018 9269     		ldr	r2, [r2, #24]
 162 001a 22F47022 		bic	r2, r2, #983040
 163 001e 9A61     		str	r2, [r3, #24]
 151:../Generated_Code/OdometryGPIO.c ****   /* GPIOD_PDDR: PDD&=~0x40 */
 152:../Generated_Code/OdometryGPIO.c ****   GPIOD_PDDR &= (uint32_t)~(uint32_t)(GPIO_PDDR_PDD(0x40));                                        
 164              		.loc 1 152 0
 165 0020 4FF2C003 		movw	r3, #61632
 166 0024 C4F20F03 		movt	r3, 16399
 167 0028 4FF2C002 		movw	r2, #61632
 168 002c C4F20F02 		movt	r2, 16399
 169 0030 5269     		ldr	r2, [r2, #20]
 170 0032 22F04002 		bic	r2, r2, #64
 171 0036 5A61     		str	r2, [r3, #20]
 153:../Generated_Code/OdometryGPIO.c ****   /* Interrupt vector(s) deallocation */
 154:../Generated_Code/OdometryGPIO.c ****   /* {Default RTOS Adapter} Restore interrupt vector: IVT is static, no code is generated */
 155:../Generated_Code/OdometryGPIO.c ****   /* Unregistration of the device structure */
 156:../Generated_Code/OdometryGPIO.c ****   PE_LDD_UnregisterDeviceStructure(PE_LDD_COMPONENT_OdometryGPIO_ID);
 172              		.loc 1 156 0
 173 0038 40F20003 		movw	r3, #:lower16:PE_LDD_DeviceDataList
 174 003c C0F20003 		movt	r3, #:upper16:PE_LDD_DeviceDataList
 175 0040 4FF00002 		mov	r2, #0
 176 0044 DA60     		str	r2, [r3, #12]
 157:../Generated_Code/OdometryGPIO.c ****   /* Deallocation of the device structure */
 158:../Generated_Code/OdometryGPIO.c ****   /* {Default RTOS Adapter} Driver memory deallocation: Dynamic allocation is simulated, no dealloc
 159:../Generated_Code/OdometryGPIO.c **** }
 177              		.loc 1 159 0
 178 0046 07F10C07 		add	r7, r7, #12
 179 004a BD46     		mov	sp, r7
 180 004c 80BC     		pop	{r7}
 181 004e 7047     		bx	lr
 182              		.cfi_endproc
 183              	.LFE1:
 185              		.section	.text.OdometryGPIO_SetFieldValue,"ax",%progbits
 186              		.align	2
 187              		.global	OdometryGPIO_SetFieldValue
 188              		.thumb
 189              		.thumb_func
 191              	OdometryGPIO_SetFieldValue:
 192              	.LFB2:
 160:../Generated_Code/OdometryGPIO.c **** 
 161:../Generated_Code/OdometryGPIO.c **** /*
 162:../Generated_Code/OdometryGPIO.c **** ** ===================================================================
 163:../Generated_Code/OdometryGPIO.c **** **     Method      :  OdometryGPIO_SetFieldValue (component GPIO_LDD)
 164:../Generated_Code/OdometryGPIO.c **** **
 165:../Generated_Code/OdometryGPIO.c **** **     Description :
 166:../Generated_Code/OdometryGPIO.c **** **         This method sets the output data value of the specified bit
 167:../Generated_Code/OdometryGPIO.c **** **         field.
 168:../Generated_Code/OdometryGPIO.c **** **     Parameters  :
 169:../Generated_Code/OdometryGPIO.c **** **         NAME            - DESCRIPTION
 170:../Generated_Code/OdometryGPIO.c **** **       * DeviceDataPtr   - Device data structure
 171:../Generated_Code/OdometryGPIO.c **** **                           pointer returned by <Init> method.
 172:../Generated_Code/OdometryGPIO.c **** **         Field           - Bit field to write. Bit fields are
 173:../Generated_Code/OdometryGPIO.c **** **                           defined during design time and for each bit
 174:../Generated_Code/OdometryGPIO.c **** **                           field there is a generated constant.
 175:../Generated_Code/OdometryGPIO.c **** **         Value           - Aligned data value to writting to the
 176:../Generated_Code/OdometryGPIO.c **** **                           specified bit field. The bit 0 corresponds
 177:../Generated_Code/OdometryGPIO.c **** **                           with the pin which has index 0 within the
 178:../Generated_Code/OdometryGPIO.c **** **                           given bit field, the bit 1 corresponds with
 179:../Generated_Code/OdometryGPIO.c **** **                           the pin which has index 1 within the given
 180:../Generated_Code/OdometryGPIO.c **** **                           bit field, etc.
 181:../Generated_Code/OdometryGPIO.c **** **     Returns     : Nothing
 182:../Generated_Code/OdometryGPIO.c **** ** ===================================================================
 183:../Generated_Code/OdometryGPIO.c **** */
 184:../Generated_Code/OdometryGPIO.c **** void OdometryGPIO_SetFieldValue(LDD_TDeviceData *DeviceDataPtr, LDD_GPIO_TBitField Field, OdometryG
 185:../Generated_Code/OdometryGPIO.c **** {
 193              		.loc 1 185 0
 194              		.cfi_startproc
 195              		@ args = 0, pretend = 0, frame = 16
 196              		@ frame_needed = 1, uses_anonymous_args = 0
 197              		@ link register save eliminated.
 198 0000 80B4     		push	{r7}
 199              	.LCFI6:
 200              		.cfi_def_cfa_offset 4
 201              		.cfi_offset 7, -4
 202 0002 85B0     		sub	sp, sp, #20
 203              	.LCFI7:
 204              		.cfi_def_cfa_offset 24
 205 0004 00AF     		add	r7, sp, #0
 206              	.LCFI8:
 207              		.cfi_def_cfa_register 7
 208 0006 F860     		str	r0, [r7, #12]
 209 0008 B960     		str	r1, [r7, #8]
 210 000a 7A60     		str	r2, [r7, #4]
 186:../Generated_Code/OdometryGPIO.c ****   (void)DeviceDataPtr;                 /* Parameter is not used, suppress unused argument warning *
 187:../Generated_Code/OdometryGPIO.c ****   switch (Field) {                     /* no break */
 211              		.loc 1 187 0
 212 000c BB68     		ldr	r3, [r7, #8]
 213 000e 002B     		cmp	r3, #0
 214 0010 12D1     		bne	.L7
 215              	.L5:
 188:../Generated_Code/OdometryGPIO.c ****     case OdometryRightPin: {           /* bit field #0 */
 189:../Generated_Code/OdometryGPIO.c ****       GPIO_PDD_SetPortDataOutput(OdometryGPIO_MODULE_BASE_ADDRESS,
 216              		.loc 1 189 0
 217 0012 4FF2C003 		movw	r3, #61632
 218 0016 C4F20F03 		movt	r3, 16399
 219 001a 4FF2C002 		movw	r2, #61632
 220 001e C4F20F02 		movt	r2, 16399
 221 0022 1268     		ldr	r2, [r2, #0]
 222 0024 22F04001 		bic	r1, r2, #64
 223 0028 7A68     		ldr	r2, [r7, #4]
 224 002a 4FEA8212 		lsl	r2, r2, #6
 225 002e 02F04002 		and	r2, r2, #64
 226 0032 0A43     		orrs	r2, r2, r1
 227 0034 1A60     		str	r2, [r3, #0]
 190:../Generated_Code/OdometryGPIO.c ****         (
 191:../Generated_Code/OdometryGPIO.c ****           GPIO_PDD_GetPortDataOutput(OdometryGPIO_MODULE_BASE_ADDRESS)
 192:../Generated_Code/OdometryGPIO.c ****           & ((OdometryGPIO_TPortValue)(~((OdometryGPIO_TPortValue)OdometryGPIO_OdometryRightPin_MAS
 193:../Generated_Code/OdometryGPIO.c ****         )
 194:../Generated_Code/OdometryGPIO.c ****         | (
 195:../Generated_Code/OdometryGPIO.c ****           ((OdometryGPIO_TPortValue)(Value << OdometryGPIO_OdometryRightPin_START_BIT))
 196:../Generated_Code/OdometryGPIO.c ****           & ((OdometryGPIO_TPortValue)OdometryGPIO_OdometryRightPin_MASK)
 197:../Generated_Code/OdometryGPIO.c ****         )
 198:../Generated_Code/OdometryGPIO.c ****       );
 199:../Generated_Code/OdometryGPIO.c ****       break;
 228              		.loc 1 199 0
 229 0036 00E0     		b	.L3
 230              	.L7:
 200:../Generated_Code/OdometryGPIO.c ****     }
 201:../Generated_Code/OdometryGPIO.c ****     default:
 202:../Generated_Code/OdometryGPIO.c ****       break;                           /* Invalid Field is not treated, result is undefined */
 231              		.loc 1 202 0
 232 0038 00BF     		nop
 233              	.L3:
 203:../Generated_Code/OdometryGPIO.c ****   } /* switch (Field) */
 204:../Generated_Code/OdometryGPIO.c **** }
 234              		.loc 1 204 0
 235 003a 07F11407 		add	r7, r7, #20
 236 003e BD46     		mov	sp, r7
 237 0040 80BC     		pop	{r7}
 238 0042 7047     		bx	lr
 239              		.cfi_endproc
 240              	.LFE2:
 242              		.section	.text.OdometryGPIO_GetFieldValue,"ax",%progbits
 243              		.align	2
 244              		.global	OdometryGPIO_GetFieldValue
 245              		.thumb
 246              		.thumb_func
 248              	OdometryGPIO_GetFieldValue:
 249              	.LFB3:
 205:../Generated_Code/OdometryGPIO.c **** 
 206:../Generated_Code/OdometryGPIO.c **** /*
 207:../Generated_Code/OdometryGPIO.c **** ** ===================================================================
 208:../Generated_Code/OdometryGPIO.c **** **     Method      :  OdometryGPIO_GetFieldValue (component GPIO_LDD)
 209:../Generated_Code/OdometryGPIO.c **** **
 210:../Generated_Code/OdometryGPIO.c **** **     Description :
 211:../Generated_Code/OdometryGPIO.c **** **         This method returns the current input data of the specified
 212:../Generated_Code/OdometryGPIO.c **** **         field.
 213:../Generated_Code/OdometryGPIO.c **** **     Parameters  :
 214:../Generated_Code/OdometryGPIO.c **** **         NAME            - DESCRIPTION
 215:../Generated_Code/OdometryGPIO.c **** **       * DeviceDataPtr   - Device data structure
 216:../Generated_Code/OdometryGPIO.c **** **                           pointer returned by <Init> method.
 217:../Generated_Code/OdometryGPIO.c **** **         Field           - Bit field to reading. Bit fields are
 218:../Generated_Code/OdometryGPIO.c **** **                           defined during design time and for each bit
 219:../Generated_Code/OdometryGPIO.c **** **                           field there is a generated constant.
 220:../Generated_Code/OdometryGPIO.c **** **     Returns     :
 221:../Generated_Code/OdometryGPIO.c **** **         ---             - Aligned current port input value masked
 222:../Generated_Code/OdometryGPIO.c **** **                           for allocated pins of the field. The bit 0
 223:../Generated_Code/OdometryGPIO.c **** **                           corresponds with the pin which has index 0
 224:../Generated_Code/OdometryGPIO.c **** **                           within the given bit field, the bit 1
 225:../Generated_Code/OdometryGPIO.c **** **                           corresponds with the pin which has index 1
 226:../Generated_Code/OdometryGPIO.c **** **                           within the given bit field, etc.
 227:../Generated_Code/OdometryGPIO.c **** ** ===================================================================
 228:../Generated_Code/OdometryGPIO.c **** */
 229:../Generated_Code/OdometryGPIO.c **** OdometryGPIO_TFieldValue OdometryGPIO_GetFieldValue(LDD_TDeviceData *DeviceDataPtr, LDD_GPIO_TBitFi
 230:../Generated_Code/OdometryGPIO.c **** {
 250              		.loc 1 230 0
 251              		.cfi_startproc
 252              		@ args = 0, pretend = 0, frame = 8
 253              		@ frame_needed = 1, uses_anonymous_args = 0
 254              		@ link register save eliminated.
 255 0000 80B4     		push	{r7}
 256              	.LCFI9:
 257              		.cfi_def_cfa_offset 4
 258              		.cfi_offset 7, -4
 259 0002 83B0     		sub	sp, sp, #12
 260              	.LCFI10:
 261              		.cfi_def_cfa_offset 16
 262 0004 00AF     		add	r7, sp, #0
 263              	.LCFI11:
 264              		.cfi_def_cfa_register 7
 265 0006 7860     		str	r0, [r7, #4]
 266 0008 3960     		str	r1, [r7, #0]
 231:../Generated_Code/OdometryGPIO.c ****   (void)DeviceDataPtr;                 /* Parameter is not used, suppress unused argument warning *
 232:../Generated_Code/OdometryGPIO.c ****   switch (Field) {                     /* no break */
 267              		.loc 1 232 0
 268 000a 3B68     		ldr	r3, [r7, #0]
 269 000c 002B     		cmp	r3, #0
 270 000e 09D1     		bne	.L12
 271              	.L10:
 233:../Generated_Code/OdometryGPIO.c ****     case OdometryRightPin: {           /* bit field #0 */
 234:../Generated_Code/OdometryGPIO.c ****       return
 235:../Generated_Code/OdometryGPIO.c ****         (OdometryGPIO_TFieldValue)(
 236:../Generated_Code/OdometryGPIO.c ****           (
 237:../Generated_Code/OdometryGPIO.c ****             GPIO_PDD_GetPortDataInput(OdometryGPIO_MODULE_BASE_ADDRESS)
 272              		.loc 1 237 0
 273 0010 4FF2C003 		movw	r3, #61632
 274 0014 C4F20F03 		movt	r3, 16399
 275 0018 1B69     		ldr	r3, [r3, #16]
 238:../Generated_Code/OdometryGPIO.c ****             & (OdometryGPIO_TPortValue)OdometryGPIO_OdometryRightPin_MASK
 276              		.loc 1 238 0
 277 001a 03F04003 		and	r3, r3, #64
 234:../Generated_Code/OdometryGPIO.c ****       return
 278              		.loc 1 234 0
 279 001e 4FEA9313 		lsr	r3, r3, #6
 280 0022 02E0     		b	.L11
 281              	.L12:
 239:../Generated_Code/OdometryGPIO.c ****           )
 240:../Generated_Code/OdometryGPIO.c ****           >> OdometryGPIO_OdometryRightPin_START_BIT
 241:../Generated_Code/OdometryGPIO.c ****         );
 242:../Generated_Code/OdometryGPIO.c ****     }
 243:../Generated_Code/OdometryGPIO.c ****     default:
 244:../Generated_Code/OdometryGPIO.c ****       break;                           /* Invalid BitField is not treated, result is undefined */
 282              		.loc 1 244 0
 283 0024 00BF     		nop
 245:../Generated_Code/OdometryGPIO.c ****   } /* switch (Field) */
 246:../Generated_Code/OdometryGPIO.c ****   return (OdometryGPIO_TFieldValue)0U;
 284              		.loc 1 246 0
 285 0026 4FF00003 		mov	r3, #0
 286              	.L11:
 247:../Generated_Code/OdometryGPIO.c **** }
 287              		.loc 1 247 0
 288 002a 1846     		mov	r0, r3
 289 002c 07F10C07 		add	r7, r7, #12
 290 0030 BD46     		mov	sp, r7
 291 0032 80BC     		pop	{r7}
 292 0034 7047     		bx	lr
 293              		.cfi_endproc
 294              	.LFE3:
 296 0036 00BF     		.section	.text.OdometryGPIO_ClearFieldBits,"ax",%progbits
 297              		.align	2
 298              		.global	OdometryGPIO_ClearFieldBits
 299              		.thumb
 300              		.thumb_func
 302              	OdometryGPIO_ClearFieldBits:
 303              	.LFB4:
 248:../Generated_Code/OdometryGPIO.c **** 
 249:../Generated_Code/OdometryGPIO.c **** /*
 250:../Generated_Code/OdometryGPIO.c **** ** ===================================================================
 251:../Generated_Code/OdometryGPIO.c **** **     Method      :  OdometryGPIO_ClearFieldBits (component GPIO_LDD)
 252:../Generated_Code/OdometryGPIO.c **** **
 253:../Generated_Code/OdometryGPIO.c **** **     Description :
 254:../Generated_Code/OdometryGPIO.c **** **         This method drives the specified bits of the specified bit
 255:../Generated_Code/OdometryGPIO.c **** **         field to the inactive level.
 256:../Generated_Code/OdometryGPIO.c **** **     Parameters  :
 257:../Generated_Code/OdometryGPIO.c **** **         NAME            - DESCRIPTION
 258:../Generated_Code/OdometryGPIO.c **** **       * DeviceDataPtr   - Device data structure
 259:../Generated_Code/OdometryGPIO.c **** **                           pointer returned by <Init> method.
 260:../Generated_Code/OdometryGPIO.c **** **         Field           - Bit field to write. Bit fields are
 261:../Generated_Code/OdometryGPIO.c **** **                           defined during design time and for each bit
 262:../Generated_Code/OdometryGPIO.c **** **                           field there is a generated constant.
 263:../Generated_Code/OdometryGPIO.c **** **         Mask            - Aligned mask of bits to setting the
 264:../Generated_Code/OdometryGPIO.c **** **                           inactive level. Each field pin has
 265:../Generated_Code/OdometryGPIO.c **** **                           corresponding bit in the mask. Bit value 0
 266:../Generated_Code/OdometryGPIO.c **** **                           means not selected bit, bit value 1 means
 267:../Generated_Code/OdometryGPIO.c **** **                           selected bit. The bit 0 corresponds with
 268:../Generated_Code/OdometryGPIO.c **** **                           the pin which has index 0 within the given
 269:../Generated_Code/OdometryGPIO.c **** **                           bit field, the bit 1 corresponds with the
 270:../Generated_Code/OdometryGPIO.c **** **                           pin which has index 1 within the given bit
 271:../Generated_Code/OdometryGPIO.c **** **                           field, etc.
 272:../Generated_Code/OdometryGPIO.c **** **     Returns     : Nothing
 273:../Generated_Code/OdometryGPIO.c **** ** ===================================================================
 274:../Generated_Code/OdometryGPIO.c **** */
 275:../Generated_Code/OdometryGPIO.c **** void OdometryGPIO_ClearFieldBits(LDD_TDeviceData *DeviceDataPtr, LDD_GPIO_TBitField Field, Odometry
 276:../Generated_Code/OdometryGPIO.c **** {
 304              		.loc 1 276 0
 305              		.cfi_startproc
 306              		@ args = 0, pretend = 0, frame = 16
 307              		@ frame_needed = 1, uses_anonymous_args = 0
 308              		@ link register save eliminated.
 309 0000 80B4     		push	{r7}
 310              	.LCFI12:
 311              		.cfi_def_cfa_offset 4
 312              		.cfi_offset 7, -4
 313 0002 85B0     		sub	sp, sp, #20
 314              	.LCFI13:
 315              		.cfi_def_cfa_offset 24
 316 0004 00AF     		add	r7, sp, #0
 317              	.LCFI14:
 318              		.cfi_def_cfa_register 7
 319 0006 F860     		str	r0, [r7, #12]
 320 0008 B960     		str	r1, [r7, #8]
 321 000a 7A60     		str	r2, [r7, #4]
 277:../Generated_Code/OdometryGPIO.c ****   (void)DeviceDataPtr;                 /* Parameter is not used, suppress unused argument warning *
 278:../Generated_Code/OdometryGPIO.c ****   switch (Field) {                     /* no break */
 322              		.loc 1 278 0
 323 000c BB68     		ldr	r3, [r7, #8]
 324 000e 002B     		cmp	r3, #0
 325 0010 0AD1     		bne	.L17
 326              	.L15:
 279:../Generated_Code/OdometryGPIO.c ****     case OdometryRightPin: {           /* bit field #0 */
 280:../Generated_Code/OdometryGPIO.c ****       GPIO_PDD_ClearPortDataOutputMask(OdometryGPIO_MODULE_BASE_ADDRESS,
 327              		.loc 1 280 0
 328 0012 4FF2C003 		movw	r3, #61632
 329 0016 C4F20F03 		movt	r3, 16399
 330 001a 7A68     		ldr	r2, [r7, #4]
 331 001c 4FEA8212 		lsl	r2, r2, #6
 332 0020 02F04002 		and	r2, r2, #64
 333 0024 9A60     		str	r2, [r3, #8]
 281:../Generated_Code/OdometryGPIO.c ****         ((OdometryGPIO_TPortValue)OdometryGPIO_OdometryRightPin_MASK)
 282:../Generated_Code/OdometryGPIO.c ****         & ((OdometryGPIO_TPortValue)(Mask << OdometryGPIO_OdometryRightPin_START_BIT))
 283:../Generated_Code/OdometryGPIO.c ****       );
 284:../Generated_Code/OdometryGPIO.c ****       break;
 334              		.loc 1 284 0
 335 0026 00E0     		b	.L13
 336              	.L17:
 285:../Generated_Code/OdometryGPIO.c ****     }
 286:../Generated_Code/OdometryGPIO.c ****     default:
 287:../Generated_Code/OdometryGPIO.c ****       break;                           /* Invalid Field is not treated, result is undefined */
 337              		.loc 1 287 0
 338 0028 00BF     		nop
 339              	.L13:
 288:../Generated_Code/OdometryGPIO.c ****   } /* switch (Field) */
 289:../Generated_Code/OdometryGPIO.c **** }
 340              		.loc 1 289 0
 341 002a 07F11407 		add	r7, r7, #20
 342 002e BD46     		mov	sp, r7
 343 0030 80BC     		pop	{r7}
 344 0032 7047     		bx	lr
 345              		.cfi_endproc
 346              	.LFE4:
 348              		.section	.text.OdometryGPIO_SetFieldBits,"ax",%progbits
 349              		.align	2
 350              		.global	OdometryGPIO_SetFieldBits
 351              		.thumb
 352              		.thumb_func
 354              	OdometryGPIO_SetFieldBits:
 355              	.LFB5:
 290:../Generated_Code/OdometryGPIO.c **** 
 291:../Generated_Code/OdometryGPIO.c **** /*
 292:../Generated_Code/OdometryGPIO.c **** ** ===================================================================
 293:../Generated_Code/OdometryGPIO.c **** **     Method      :  OdometryGPIO_SetFieldBits (component GPIO_LDD)
 294:../Generated_Code/OdometryGPIO.c **** **
 295:../Generated_Code/OdometryGPIO.c **** **     Description :
 296:../Generated_Code/OdometryGPIO.c **** **         This method drives the specified bits of the specified bit
 297:../Generated_Code/OdometryGPIO.c **** **         field to the active level.
 298:../Generated_Code/OdometryGPIO.c **** **     Parameters  :
 299:../Generated_Code/OdometryGPIO.c **** **         NAME            - DESCRIPTION
 300:../Generated_Code/OdometryGPIO.c **** **       * DeviceDataPtr   - Device data structure
 301:../Generated_Code/OdometryGPIO.c **** **                           pointer returned by <Init> method.
 302:../Generated_Code/OdometryGPIO.c **** **         Field           - Bit field to write. Bit fields are
 303:../Generated_Code/OdometryGPIO.c **** **                           defined during design time and for each bit
 304:../Generated_Code/OdometryGPIO.c **** **                           field there is a generated constant.
 305:../Generated_Code/OdometryGPIO.c **** **         Mask            - Aligned mask of bits to setting the
 306:../Generated_Code/OdometryGPIO.c **** **                           active level. Each field pin has
 307:../Generated_Code/OdometryGPIO.c **** **                           corresponding bit in the mask. Bit value 0
 308:../Generated_Code/OdometryGPIO.c **** **                           means not selected bit, bit value 1 means
 309:../Generated_Code/OdometryGPIO.c **** **                           selected bit. The bit 0 corresponds with
 310:../Generated_Code/OdometryGPIO.c **** **                           the pin which has index 0 within the given
 311:../Generated_Code/OdometryGPIO.c **** **                           bit field, the bit 1 corresponds with the
 312:../Generated_Code/OdometryGPIO.c **** **                           pin which has index 1 within the given bit
 313:../Generated_Code/OdometryGPIO.c **** **                           field, etc.
 314:../Generated_Code/OdometryGPIO.c **** **     Returns     : Nothing
 315:../Generated_Code/OdometryGPIO.c **** ** ===================================================================
 316:../Generated_Code/OdometryGPIO.c **** */
 317:../Generated_Code/OdometryGPIO.c **** void OdometryGPIO_SetFieldBits(LDD_TDeviceData *DeviceDataPtr, LDD_GPIO_TBitField Field, OdometryGP
 318:../Generated_Code/OdometryGPIO.c **** {
 356              		.loc 1 318 0
 357              		.cfi_startproc
 358              		@ args = 0, pretend = 0, frame = 16
 359              		@ frame_needed = 1, uses_anonymous_args = 0
 360              		@ link register save eliminated.
 361 0000 80B4     		push	{r7}
 362              	.LCFI15:
 363              		.cfi_def_cfa_offset 4
 364              		.cfi_offset 7, -4
 365 0002 85B0     		sub	sp, sp, #20
 366              	.LCFI16:
 367              		.cfi_def_cfa_offset 24
 368 0004 00AF     		add	r7, sp, #0
 369              	.LCFI17:
 370              		.cfi_def_cfa_register 7
 371 0006 F860     		str	r0, [r7, #12]
 372 0008 B960     		str	r1, [r7, #8]
 373 000a 7A60     		str	r2, [r7, #4]
 319:../Generated_Code/OdometryGPIO.c ****   (void)DeviceDataPtr;                 /* Parameter is not used, suppress unused argument warning *
 320:../Generated_Code/OdometryGPIO.c ****   switch (Field) {                     /* no break */
 374              		.loc 1 320 0
 375 000c BB68     		ldr	r3, [r7, #8]
 376 000e 002B     		cmp	r3, #0
 377 0010 0AD1     		bne	.L22
 378              	.L20:
 321:../Generated_Code/OdometryGPIO.c ****     case OdometryRightPin: {           /* bit field #0 */
 322:../Generated_Code/OdometryGPIO.c ****       GPIO_PDD_SetPortDataOutputMask(OdometryGPIO_MODULE_BASE_ADDRESS,
 379              		.loc 1 322 0
 380 0012 4FF2C003 		movw	r3, #61632
 381 0016 C4F20F03 		movt	r3, 16399
 382 001a 7A68     		ldr	r2, [r7, #4]
 383 001c 4FEA8212 		lsl	r2, r2, #6
 384 0020 02F04002 		and	r2, r2, #64
 385 0024 5A60     		str	r2, [r3, #4]
 323:../Generated_Code/OdometryGPIO.c ****         ((OdometryGPIO_TPortValue)OdometryGPIO_OdometryRightPin_MASK)
 324:../Generated_Code/OdometryGPIO.c ****         & ((OdometryGPIO_TPortValue)(Mask << OdometryGPIO_OdometryRightPin_START_BIT))
 325:../Generated_Code/OdometryGPIO.c ****       );
 326:../Generated_Code/OdometryGPIO.c ****       break;
 386              		.loc 1 326 0
 387 0026 00E0     		b	.L18
 388              	.L22:
 327:../Generated_Code/OdometryGPIO.c ****     }
 328:../Generated_Code/OdometryGPIO.c ****     default:
 329:../Generated_Code/OdometryGPIO.c ****       break;                           /* Invalid Field is not treated, result is undefined */
 389              		.loc 1 329 0
 390 0028 00BF     		nop
 391              	.L18:
 330:../Generated_Code/OdometryGPIO.c ****   } /* switch (Field) */
 331:../Generated_Code/OdometryGPIO.c **** }
 392              		.loc 1 331 0
 393 002a 07F11407 		add	r7, r7, #20
 394 002e BD46     		mov	sp, r7
 395 0030 80BC     		pop	{r7}
 396 0032 7047     		bx	lr
 397              		.cfi_endproc
 398              	.LFE5:
 400              		.section	.text.OdometryGPIO_ToggleFieldBits,"ax",%progbits
 401              		.align	2
 402              		.global	OdometryGPIO_ToggleFieldBits
 403              		.thumb
 404              		.thumb_func
 406              	OdometryGPIO_ToggleFieldBits:
 407              	.LFB6:
 332:../Generated_Code/OdometryGPIO.c **** 
 333:../Generated_Code/OdometryGPIO.c **** /*
 334:../Generated_Code/OdometryGPIO.c **** ** ===================================================================
 335:../Generated_Code/OdometryGPIO.c **** **     Method      :  OdometryGPIO_ToggleFieldBits (component GPIO_LDD)
 336:../Generated_Code/OdometryGPIO.c **** **
 337:../Generated_Code/OdometryGPIO.c **** **     Description :
 338:../Generated_Code/OdometryGPIO.c **** **         This method inverts the specified bits of the specified bit
 339:../Generated_Code/OdometryGPIO.c **** **         field to other level.
 340:../Generated_Code/OdometryGPIO.c **** **     Parameters  :
 341:../Generated_Code/OdometryGPIO.c **** **         NAME            - DESCRIPTION
 342:../Generated_Code/OdometryGPIO.c **** **       * DeviceDataPtr   - Device data structure
 343:../Generated_Code/OdometryGPIO.c **** **                           pointer returned by <Init> method.
 344:../Generated_Code/OdometryGPIO.c **** **         Field           - Bit field to write. Bit fields are
 345:../Generated_Code/OdometryGPIO.c **** **                           defined during design time and for each bit
 346:../Generated_Code/OdometryGPIO.c **** **                           field there is a generated constant.
 347:../Generated_Code/OdometryGPIO.c **** **         Mask            - Aligned mask of bits to inverting the
 348:../Generated_Code/OdometryGPIO.c **** **                           current level. Each field pin has
 349:../Generated_Code/OdometryGPIO.c **** **                           corresponding bit in the mask. Bit value 0
 350:../Generated_Code/OdometryGPIO.c **** **                           means not selected bit, bit value 1 means
 351:../Generated_Code/OdometryGPIO.c **** **                           selected bit. The bit 0 corresponds with
 352:../Generated_Code/OdometryGPIO.c **** **                           the pin which has index 0 within the given
 353:../Generated_Code/OdometryGPIO.c **** **                           bit field, the bit 1 corresponds with the
 354:../Generated_Code/OdometryGPIO.c **** **                           pin which has index 1 within the given bit
 355:../Generated_Code/OdometryGPIO.c **** **                           field, etc.
 356:../Generated_Code/OdometryGPIO.c **** **     Returns     : Nothing
 357:../Generated_Code/OdometryGPIO.c **** ** ===================================================================
 358:../Generated_Code/OdometryGPIO.c **** */
 359:../Generated_Code/OdometryGPIO.c **** void OdometryGPIO_ToggleFieldBits(LDD_TDeviceData *DeviceDataPtr, LDD_GPIO_TBitField Field, Odometr
 360:../Generated_Code/OdometryGPIO.c **** {
 408              		.loc 1 360 0
 409              		.cfi_startproc
 410              		@ args = 0, pretend = 0, frame = 16
 411              		@ frame_needed = 1, uses_anonymous_args = 0
 412              		@ link register save eliminated.
 413 0000 80B4     		push	{r7}
 414              	.LCFI18:
 415              		.cfi_def_cfa_offset 4
 416              		.cfi_offset 7, -4
 417 0002 85B0     		sub	sp, sp, #20
 418              	.LCFI19:
 419              		.cfi_def_cfa_offset 24
 420 0004 00AF     		add	r7, sp, #0
 421              	.LCFI20:
 422              		.cfi_def_cfa_register 7
 423 0006 F860     		str	r0, [r7, #12]
 424 0008 B960     		str	r1, [r7, #8]
 425 000a 7A60     		str	r2, [r7, #4]
 361:../Generated_Code/OdometryGPIO.c ****   (void)DeviceDataPtr;                 /* Parameter is not used, suppress unused argument warning *
 362:../Generated_Code/OdometryGPIO.c ****   switch (Field) {                     /* no break */
 426              		.loc 1 362 0
 427 000c BB68     		ldr	r3, [r7, #8]
 428 000e 002B     		cmp	r3, #0
 429 0010 0AD1     		bne	.L27
 430              	.L25:
 363:../Generated_Code/OdometryGPIO.c ****     case OdometryRightPin: {           /* bit field #0 */
 364:../Generated_Code/OdometryGPIO.c ****       GPIO_PDD_TogglePortDataOutputMask(OdometryGPIO_MODULE_BASE_ADDRESS,
 431              		.loc 1 364 0
 432 0012 4FF2C003 		movw	r3, #61632
 433 0016 C4F20F03 		movt	r3, 16399
 434 001a 7A68     		ldr	r2, [r7, #4]
 435 001c 4FEA8212 		lsl	r2, r2, #6
 436 0020 02F04002 		and	r2, r2, #64
 437 0024 DA60     		str	r2, [r3, #12]
 365:../Generated_Code/OdometryGPIO.c ****         ((OdometryGPIO_TPortValue)OdometryGPIO_OdometryRightPin_MASK)
 366:../Generated_Code/OdometryGPIO.c ****         & ((OdometryGPIO_TPortValue)(Mask << OdometryGPIO_OdometryRightPin_START_BIT))
 367:../Generated_Code/OdometryGPIO.c ****       );
 368:../Generated_Code/OdometryGPIO.c ****       break;
 438              		.loc 1 368 0
 439 0026 00E0     		b	.L23
 440              	.L27:
 369:../Generated_Code/OdometryGPIO.c ****     }
 370:../Generated_Code/OdometryGPIO.c ****     default:
 371:../Generated_Code/OdometryGPIO.c ****       break;                           /* Invalid Field is not treated, result is undefined */
 441              		.loc 1 371 0
 442 0028 00BF     		nop
 443              	.L23:
 372:../Generated_Code/OdometryGPIO.c ****   } /* switch (Field) */
 373:../Generated_Code/OdometryGPIO.c **** }
 444              		.loc 1 373 0
 445 002a 07F11407 		add	r7, r7, #20
 446 002e BD46     		mov	sp, r7
 447 0030 80BC     		pop	{r7}
 448 0032 7047     		bx	lr
 449              		.cfi_endproc
 450              	.LFE6:
 452              		.section	.text.OdometryGPIO_SetFieldInputDirection,"ax",%progbits
 453              		.align	2
 454              		.global	OdometryGPIO_SetFieldInputDirection
 455              		.thumb
 456              		.thumb_func
 458              	OdometryGPIO_SetFieldInputDirection:
 459              	.LFB7:
 374:../Generated_Code/OdometryGPIO.c **** 
 375:../Generated_Code/OdometryGPIO.c **** /*
 376:../Generated_Code/OdometryGPIO.c **** ** ===================================================================
 377:../Generated_Code/OdometryGPIO.c **** **     Method      :  OdometryGPIO_SetFieldInputDirection (component GPIO_LDD)
 378:../Generated_Code/OdometryGPIO.c **** **
 379:../Generated_Code/OdometryGPIO.c **** **     Description :
 380:../Generated_Code/OdometryGPIO.c **** **         This method sets all pins of the field to the input
 381:../Generated_Code/OdometryGPIO.c **** **         direction.
 382:../Generated_Code/OdometryGPIO.c **** **     Parameters  :
 383:../Generated_Code/OdometryGPIO.c **** **         NAME            - DESCRIPTION
 384:../Generated_Code/OdometryGPIO.c **** **       * DeviceDataPtr   - Device data structure
 385:../Generated_Code/OdometryGPIO.c **** **                           pointer returned by <Init> method.
 386:../Generated_Code/OdometryGPIO.c **** **         Field           - Bit field to write. Bit fields are
 387:../Generated_Code/OdometryGPIO.c **** **                           defined during design time and for each bit
 388:../Generated_Code/OdometryGPIO.c **** **                           field there is a generated constant.
 389:../Generated_Code/OdometryGPIO.c **** **     Returns     : Nothing
 390:../Generated_Code/OdometryGPIO.c **** ** ===================================================================
 391:../Generated_Code/OdometryGPIO.c **** */
 392:../Generated_Code/OdometryGPIO.c **** void OdometryGPIO_SetFieldInputDirection(LDD_TDeviceData *DeviceDataPtr, LDD_GPIO_TBitField Field)
 393:../Generated_Code/OdometryGPIO.c **** {
 460              		.loc 1 393 0
 461              		.cfi_startproc
 462              		@ args = 0, pretend = 0, frame = 8
 463              		@ frame_needed = 1, uses_anonymous_args = 0
 464              		@ link register save eliminated.
 465 0000 80B4     		push	{r7}
 466              	.LCFI21:
 467              		.cfi_def_cfa_offset 4
 468              		.cfi_offset 7, -4
 469 0002 83B0     		sub	sp, sp, #12
 470              	.LCFI22:
 471              		.cfi_def_cfa_offset 16
 472 0004 00AF     		add	r7, sp, #0
 473              	.LCFI23:
 474              		.cfi_def_cfa_register 7
 475 0006 7860     		str	r0, [r7, #4]
 476 0008 3960     		str	r1, [r7, #0]
 394:../Generated_Code/OdometryGPIO.c ****   (void)DeviceDataPtr;                 /* Parameter is not used, suppress unused argument warning *
 395:../Generated_Code/OdometryGPIO.c ****   switch (Field) {                     /* no break */
 477              		.loc 1 395 0
 478 000a 3B68     		ldr	r3, [r7, #0]
 479 000c 002B     		cmp	r3, #0
 480 000e 0CD1     		bne	.L32
 481              	.L30:
 396:../Generated_Code/OdometryGPIO.c ****     case OdometryRightPin: {           /* bit field #0 */
 397:../Generated_Code/OdometryGPIO.c ****       GPIO_PDD_SetPortInputDirectionMask(OdometryGPIO_MODULE_BASE_ADDRESS,
 482              		.loc 1 397 0
 483 0010 4FF2C003 		movw	r3, #61632
 484 0014 C4F20F03 		movt	r3, 16399
 485 0018 4FF2C002 		movw	r2, #61632
 486 001c C4F20F02 		movt	r2, 16399
 487 0020 5269     		ldr	r2, [r2, #20]
 488 0022 22F04002 		bic	r2, r2, #64
 489 0026 5A61     		str	r2, [r3, #20]
 398:../Generated_Code/OdometryGPIO.c ****         OdometryGPIO_OdometryRightPin_MASK
 399:../Generated_Code/OdometryGPIO.c ****       );
 400:../Generated_Code/OdometryGPIO.c ****       break;
 490              		.loc 1 400 0
 491 0028 00E0     		b	.L28
 492              	.L32:
 401:../Generated_Code/OdometryGPIO.c ****     }
 402:../Generated_Code/OdometryGPIO.c ****     default:
 403:../Generated_Code/OdometryGPIO.c ****       break;                           /* Invalid Field is not treated, result is undefined */
 493              		.loc 1 403 0
 494 002a 00BF     		nop
 495              	.L28:
 404:../Generated_Code/OdometryGPIO.c ****   } /* switch (Field) */
 405:../Generated_Code/OdometryGPIO.c **** }
 496              		.loc 1 405 0
 497 002c 07F10C07 		add	r7, r7, #12
 498 0030 BD46     		mov	sp, r7
 499 0032 80BC     		pop	{r7}
 500 0034 7047     		bx	lr
 501              		.cfi_endproc
 502              	.LFE7:
 504 0036 00BF     		.section	.text.OdometryGPIO_SetFieldOutputDirection,"ax",%progbits
 505              		.align	2
 506              		.global	OdometryGPIO_SetFieldOutputDirection
 507              		.thumb
 508              		.thumb_func
 510              	OdometryGPIO_SetFieldOutputDirection:
 511              	.LFB8:
 406:../Generated_Code/OdometryGPIO.c **** 
 407:../Generated_Code/OdometryGPIO.c **** /*
 408:../Generated_Code/OdometryGPIO.c **** ** ===================================================================
 409:../Generated_Code/OdometryGPIO.c **** **     Method      :  OdometryGPIO_SetFieldOutputDirection (component GPIO_LDD)
 410:../Generated_Code/OdometryGPIO.c **** **
 411:../Generated_Code/OdometryGPIO.c **** **     Description :
 412:../Generated_Code/OdometryGPIO.c **** **         This method sets all pins of the field to the output
 413:../Generated_Code/OdometryGPIO.c **** **         direction.
 414:../Generated_Code/OdometryGPIO.c **** **     Parameters  :
 415:../Generated_Code/OdometryGPIO.c **** **         NAME            - DESCRIPTION
 416:../Generated_Code/OdometryGPIO.c **** **       * DeviceDataPtr   - Device data structure
 417:../Generated_Code/OdometryGPIO.c **** **                           pointer returned by <Init> method.
 418:../Generated_Code/OdometryGPIO.c **** **         Field           - Bit field to set to the output
 419:../Generated_Code/OdometryGPIO.c **** **                           direction. Bit fields are defined during
 420:../Generated_Code/OdometryGPIO.c **** **                           design time and for each bit field there is
 421:../Generated_Code/OdometryGPIO.c **** **                           a generated constant.
 422:../Generated_Code/OdometryGPIO.c **** **         Value           - Aligned data value to appear on the
 423:../Generated_Code/OdometryGPIO.c **** **                           bit field pins after they have been
 424:../Generated_Code/OdometryGPIO.c **** **                           switched to the output direction.
 425:../Generated_Code/OdometryGPIO.c **** **     Returns     : Nothing
 426:../Generated_Code/OdometryGPIO.c **** ** ===================================================================
 427:../Generated_Code/OdometryGPIO.c **** */
 428:../Generated_Code/OdometryGPIO.c **** void OdometryGPIO_SetFieldOutputDirection(LDD_TDeviceData *DeviceDataPtr, LDD_GPIO_TBitField Field,
 429:../Generated_Code/OdometryGPIO.c **** {
 512              		.loc 1 429 0
 513              		.cfi_startproc
 514              		@ args = 0, pretend = 0, frame = 16
 515              		@ frame_needed = 1, uses_anonymous_args = 0
 516              		@ link register save eliminated.
 517 0000 80B4     		push	{r7}
 518              	.LCFI24:
 519              		.cfi_def_cfa_offset 4
 520              		.cfi_offset 7, -4
 521 0002 85B0     		sub	sp, sp, #20
 522              	.LCFI25:
 523              		.cfi_def_cfa_offset 24
 524 0004 00AF     		add	r7, sp, #0
 525              	.LCFI26:
 526              		.cfi_def_cfa_register 7
 527 0006 F860     		str	r0, [r7, #12]
 528 0008 B960     		str	r1, [r7, #8]
 529 000a 7A60     		str	r2, [r7, #4]
 430:../Generated_Code/OdometryGPIO.c ****   (void)DeviceDataPtr;                 /* Parameter is not used, suppress unused argument warning *
 431:../Generated_Code/OdometryGPIO.c ****   switch (Field) {                     /* no break */
 530              		.loc 1 431 0
 531 000c BB68     		ldr	r3, [r7, #8]
 532 000e 002B     		cmp	r3, #0
 533 0010 1ED1     		bne	.L37
 534              	.L35:
 432:../Generated_Code/OdometryGPIO.c ****     case OdometryRightPin: {           /* bit field #0 */
 433:../Generated_Code/OdometryGPIO.c ****       GPIO_PDD_SetPortDataOutput(OdometryGPIO_MODULE_BASE_ADDRESS,
 535              		.loc 1 433 0
 536 0012 4FF2C003 		movw	r3, #61632
 537 0016 C4F20F03 		movt	r3, 16399
 538 001a 4FF2C002 		movw	r2, #61632
 539 001e C4F20F02 		movt	r2, 16399
 540 0022 1268     		ldr	r2, [r2, #0]
 541 0024 22F04001 		bic	r1, r2, #64
 542 0028 7A68     		ldr	r2, [r7, #4]
 543 002a 4FEA8212 		lsl	r2, r2, #6
 544 002e 02F04002 		and	r2, r2, #64
 545 0032 0A43     		orrs	r2, r2, r1
 546 0034 1A60     		str	r2, [r3, #0]
 434:../Generated_Code/OdometryGPIO.c ****         ((OdometryGPIO_TPortValue)(
 435:../Generated_Code/OdometryGPIO.c ****           GPIO_PDD_GetPortDataOutput(OdometryGPIO_MODULE_BASE_ADDRESS)
 436:../Generated_Code/OdometryGPIO.c ****           & ((OdometryGPIO_TPortValue)(
 437:../Generated_Code/OdometryGPIO.c ****             ~((OdometryGPIO_TPortValue)OdometryGPIO_OdometryRightPin_MASK)
 438:../Generated_Code/OdometryGPIO.c ****           ))
 439:../Generated_Code/OdometryGPIO.c ****         ))
 440:../Generated_Code/OdometryGPIO.c ****         | (
 441:../Generated_Code/OdometryGPIO.c ****           ((OdometryGPIO_TPortValue)(Value << OdometryGPIO_OdometryRightPin_START_BIT))
 442:../Generated_Code/OdometryGPIO.c ****           & ((OdometryGPIO_TPortValue)OdometryGPIO_OdometryRightPin_MASK)
 443:../Generated_Code/OdometryGPIO.c ****         )
 444:../Generated_Code/OdometryGPIO.c ****       );
 445:../Generated_Code/OdometryGPIO.c ****       GPIO_PDD_SetPortOutputDirectionMask(OdometryGPIO_MODULE_BASE_ADDRESS,
 547              		.loc 1 445 0
 548 0036 4FF2C003 		movw	r3, #61632
 549 003a C4F20F03 		movt	r3, 16399
 550 003e 4FF2C002 		movw	r2, #61632
 551 0042 C4F20F02 		movt	r2, 16399
 552 0046 5269     		ldr	r2, [r2, #20]
 553 0048 42F04002 		orr	r2, r2, #64
 554 004c 5A61     		str	r2, [r3, #20]
 446:../Generated_Code/OdometryGPIO.c ****         OdometryGPIO_OdometryRightPin_MASK
 447:../Generated_Code/OdometryGPIO.c ****       );
 448:../Generated_Code/OdometryGPIO.c ****       break;
 555              		.loc 1 448 0
 556 004e 00E0     		b	.L33
 557              	.L37:
 449:../Generated_Code/OdometryGPIO.c ****     }
 450:../Generated_Code/OdometryGPIO.c ****     default:
 451:../Generated_Code/OdometryGPIO.c ****       break;                           /* Invalid Field is not treated, result is undefined */
 558              		.loc 1 451 0
 559 0050 00BF     		nop
 560              	.L33:
 452:../Generated_Code/OdometryGPIO.c ****   } /* switch (Field) */
 453:../Generated_Code/OdometryGPIO.c **** }
 561              		.loc 1 453 0
 562 0052 07F11407 		add	r7, r7, #20
 563 0056 BD46     		mov	sp, r7
 564 0058 80BC     		pop	{r7}
 565 005a 7047     		bx	lr
 566              		.cfi_endproc
 567              	.LFE8:
 569              		.section	.text.OdometryGPIO_ConnectPin,"ax",%progbits
 570              		.align	2
 571              		.global	OdometryGPIO_ConnectPin
 572              		.thumb
 573              		.thumb_func
 575              	OdometryGPIO_ConnectPin:
 576              	.LFB9:
 454:../Generated_Code/OdometryGPIO.c **** 
 455:../Generated_Code/OdometryGPIO.c **** /*
 456:../Generated_Code/OdometryGPIO.c **** ** ===================================================================
 457:../Generated_Code/OdometryGPIO.c **** **     Method      :  OdometryGPIO_ConnectPin (component GPIO_LDD)
 458:../Generated_Code/OdometryGPIO.c **** **
 459:../Generated_Code/OdometryGPIO.c **** **     Description :
 460:../Generated_Code/OdometryGPIO.c **** **         This method reconnects the requested pin associated with the
 461:../Generated_Code/OdometryGPIO.c **** **         selected peripheral in this component. This method is only
 462:../Generated_Code/OdometryGPIO.c **** **         available for CPU derivatives and peripherals that support
 463:../Generated_Code/OdometryGPIO.c **** **         the runtime pin sharing with other internal on-chip
 464:../Generated_Code/OdometryGPIO.c **** **         peripherals.
 465:../Generated_Code/OdometryGPIO.c **** **     Parameters  :
 466:../Generated_Code/OdometryGPIO.c **** **         NAME            - DESCRIPTION
 467:../Generated_Code/OdometryGPIO.c **** **       * DeviceDataPtr   - Device data structure
 468:../Generated_Code/OdometryGPIO.c **** **                           pointer returned by <Init> method.
 469:../Generated_Code/OdometryGPIO.c **** **         PinMask         - Mask for the requested pins. The
 470:../Generated_Code/OdometryGPIO.c **** **                           peripheral pins are reconnected according
 471:../Generated_Code/OdometryGPIO.c **** **                           to this mask.
 472:../Generated_Code/OdometryGPIO.c **** **     Returns     :
 473:../Generated_Code/OdometryGPIO.c **** **         ---             - Error code, possible values:
 474:../Generated_Code/OdometryGPIO.c **** **                           ERR_OK - OK
 475:../Generated_Code/OdometryGPIO.c **** **                           ERR_PARAM_MASK - Invalid pin mask
 476:../Generated_Code/OdometryGPIO.c **** ** ===================================================================
 477:../Generated_Code/OdometryGPIO.c **** */
 478:../Generated_Code/OdometryGPIO.c **** LDD_TError OdometryGPIO_ConnectPin(LDD_TDeviceData *DeviceDataPtr, LDD_TPinMask PinMask)
 479:../Generated_Code/OdometryGPIO.c **** {
 577              		.loc 1 479 0
 578              		.cfi_startproc
 579              		@ args = 0, pretend = 0, frame = 8
 580              		@ frame_needed = 1, uses_anonymous_args = 0
 581              		@ link register save eliminated.
 582 0000 80B4     		push	{r7}
 583              	.LCFI27:
 584              		.cfi_def_cfa_offset 4
 585              		.cfi_offset 7, -4
 586 0002 83B0     		sub	sp, sp, #12
 587              	.LCFI28:
 588              		.cfi_def_cfa_offset 16
 589 0004 00AF     		add	r7, sp, #0
 590              	.LCFI29:
 591              		.cfi_def_cfa_register 7
 592 0006 7860     		str	r0, [r7, #4]
 593 0008 3960     		str	r1, [r7, #0]
 480:../Generated_Code/OdometryGPIO.c ****   (void)DeviceDataPtr;                 /* Parameter is not used, suppress unused argument warning *
 481:../Generated_Code/OdometryGPIO.c ****   /* Pin mask test - this test can be disabled by setting the "Ignore range checking"
 482:../Generated_Code/OdometryGPIO.c ****      property to the "yes" value in the "Configuration inspector" */
 483:../Generated_Code/OdometryGPIO.c ****   if ((PinMask & ((LDD_TPinMask)~((LDD_TPinMask)OdometryGPIO_ALLOCATED_PINS_MASK))) != 0U) {
 594              		.loc 1 483 0
 595 000a 3B68     		ldr	r3, [r7, #0]
 596 000c 23F04003 		bic	r3, r3, #64
 597 0010 002B     		cmp	r3, #0
 598 0012 02D0     		beq	.L39
 484:../Generated_Code/OdometryGPIO.c ****     return ERR_PARAM_MASK;
 599              		.loc 1 484 0
 600 0014 4FF08003 		mov	r3, #128
 601 0018 16E0     		b	.L40
 602              	.L39:
 485:../Generated_Code/OdometryGPIO.c ****   }
 486:../Generated_Code/OdometryGPIO.c ****   if ((PinMask & LDD_GPIO_PIN_6) != 0U) {
 603              		.loc 1 486 0
 604 001a 3B68     		ldr	r3, [r7, #0]
 605 001c 03F04003 		and	r3, r3, #64
 606 0020 002B     		cmp	r3, #0
 607 0022 0FD0     		beq	.L41
 487:../Generated_Code/OdometryGPIO.c ****     clrSetReg32Bits(PORTD_PCR6, 0x01000600U, 0x0100U); /* MUX=0x01U */
 608              		.loc 1 487 0
 609 0024 4FF44043 		mov	r3, #49152
 610 0028 C4F20403 		movt	r3, 16388
 611 002c 4FF44042 		mov	r2, #49152
 612 0030 C4F20402 		movt	r2, 16388
 613 0034 9269     		ldr	r2, [r2, #24]
 614 0036 22F08072 		bic	r2, r2, #16777216
 615 003a 22F4E062 		bic	r2, r2, #1792
 616 003e 42F48072 		orr	r2, r2, #256
 617 0042 9A61     		str	r2, [r3, #24]
 618              	.L41:
 488:../Generated_Code/OdometryGPIO.c ****   }
 489:../Generated_Code/OdometryGPIO.c ****   return ERR_OK;
 619              		.loc 1 489 0
 620 0044 4FF00003 		mov	r3, #0
 621              	.L40:
 490:../Generated_Code/OdometryGPIO.c **** }
 622              		.loc 1 490 0
 623 0048 1846     		mov	r0, r3
 624 004a 07F10C07 		add	r7, r7, #12
 625 004e BD46     		mov	sp, r7
 626 0050 80BC     		pop	{r7}
 627 0052 7047     		bx	lr
 628              		.cfi_endproc
 629              	.LFE9:
 631              		.section	.text.OdometryGPIO_Interrupt,"ax",%progbits
 632              		.align	2
 633              		.global	OdometryGPIO_Interrupt
 634              		.thumb
 635              		.thumb_func
 637              	OdometryGPIO_Interrupt:
 638              	.LFB10:
 491:../Generated_Code/OdometryGPIO.c **** 
 492:../Generated_Code/OdometryGPIO.c **** /*
 493:../Generated_Code/OdometryGPIO.c **** ** ===================================================================
 494:../Generated_Code/OdometryGPIO.c **** **     Method      :  OdometryGPIO_Interrupt (component GPIO_LDD)
 495:../Generated_Code/OdometryGPIO.c **** **
 496:../Generated_Code/OdometryGPIO.c **** **     Description :
 497:../Generated_Code/OdometryGPIO.c **** **         The method services the interrupt of the selected peripheral(s)
 498:../Generated_Code/OdometryGPIO.c **** **         and eventually invokes event(s) of the component.
 499:../Generated_Code/OdometryGPIO.c **** **         This method is internal. It is used by Processor Expert only.
 500:../Generated_Code/OdometryGPIO.c **** ** ===================================================================
 501:../Generated_Code/OdometryGPIO.c **** */
 502:../Generated_Code/OdometryGPIO.c **** PE_ISR(OdometryGPIO_Interrupt)
 503:../Generated_Code/OdometryGPIO.c **** {
 639              		.loc 1 503 0
 640              		.cfi_startproc
 641              		@ Stack Align: May be called with mis-aligned SP.
 642              		@ args = 0, pretend = 0, frame = 8
 643              		@ frame_needed = 1, uses_anonymous_args = 0
 644 0000 6846     		mov	r0, sp
 645              		.cfi_register 13, 0
 646 0002 20F00701 		bic	r1, r0, #7
 647 0006 8D46     		mov	sp, r1
 648 0008 81B5     		push	{r0, r7, lr}
 649              	.LCFI30:
 650              		.cfi_def_cfa_offset 12
 651              		.cfi_offset 14, -4
 652              		.cfi_offset 7, -8
 653              		.cfi_offset 13, -12
 654 000a 83B0     		sub	sp, sp, #12
 655              	.LCFI31:
 656              		.cfi_def_cfa_offset 24
 657 000c 00AF     		add	r7, sp, #0
 658              	.LCFI32:
 659              		.cfi_def_cfa_register 7
 504:../Generated_Code/OdometryGPIO.c ****   /* {Default RTOS Adapter} ISR parameter is passed through the global variable */
 505:../Generated_Code/OdometryGPIO.c ****   OdometryGPIO_TDeviceDataPtr DeviceDataPrv = INT_PORTD__DEFAULT_RTOS_ISRPARAM;
 660              		.loc 1 505 0
 661 000e 40F20003 		movw	r3, #:lower16:INT_PORTD__DEFAULT_RTOS_ISRPARAM
 662 0012 C0F20003 		movt	r3, #:upper16:INT_PORTD__DEFAULT_RTOS_ISRPARAM
 663 0016 1B68     		ldr	r3, [r3, #0]
 664 0018 7B60     		str	r3, [r7, #4]
 506:../Generated_Code/OdometryGPIO.c ****   OdometryGPIO_TPortValue State;
 507:../Generated_Code/OdometryGPIO.c **** 
 508:../Generated_Code/OdometryGPIO.c ****   State = (OdometryGPIO_TPortValue)(PORT_PDD_GetInterruptFlags(OdometryGPIO_PORTCONTROL_BASE_ADDRES
 665              		.loc 1 508 0
 666 001a 4FF44043 		mov	r3, #49152
 667 001e C4F20403 		movt	r3, 16388
 668 0022 D3F8A030 		ldr	r3, [r3, #160]
 669 0026 03F04003 		and	r3, r3, #64
 670 002a 3B60     		str	r3, [r7, #0]
 509:../Generated_Code/OdometryGPIO.c ****           & ((OdometryGPIO_TPortValue)OdometryGPIO_ALLOCATED_PINS_MASK)); /* Retrieve flags */
 510:../Generated_Code/OdometryGPIO.c ****   DeviceDataPrv->EventFlags |= State;
 671              		.loc 1 510 0
 672 002c 7B68     		ldr	r3, [r7, #4]
 673 002e 1A68     		ldr	r2, [r3, #0]
 674 0030 3B68     		ldr	r3, [r7, #0]
 675 0032 1A43     		orrs	r2, r2, r3
 676 0034 7B68     		ldr	r3, [r7, #4]
 677 0036 1A60     		str	r2, [r3, #0]
 511:../Generated_Code/OdometryGPIO.c ****   PORT_PDD_ClearInterruptFlags(OdometryGPIO_PORTCONTROL_BASE_ADDRESS, State); /* Clears flags */
 678              		.loc 1 511 0
 679 0038 4FF44043 		mov	r3, #49152
 680 003c C4F20403 		movt	r3, 16388
 681 0040 3A68     		ldr	r2, [r7, #0]
 682 0042 C3F8A020 		str	r2, [r3, #160]
 512:../Generated_Code/OdometryGPIO.c ****   OdometryGPIO_OnPortEvent(DeviceDataPrv->UserData); /* Call OnPortEvent event */
 683              		.loc 1 512 0
 684 0046 7B68     		ldr	r3, [r7, #4]
 685 0048 5B68     		ldr	r3, [r3, #4]
 686 004a 1846     		mov	r0, r3
 687 004c FFF7FEFF 		bl	OdometryGPIO_OnPortEvent
 513:../Generated_Code/OdometryGPIO.c **** }
 688              		.loc 1 513 0
 689 0050 07F10C07 		add	r7, r7, #12
 690 0054 BD46     		mov	sp, r7
 691 0056 BDE88140 		pop	{r0, r7, lr}
 692 005a 8546     		mov	sp, r0
 693 005c 7047     		bx	lr
 694              		.cfi_endproc
 695              	.LFE10:
 697 005e 00BF     		.text
 698              	.Letext0:
 699              		.file 2 "C:/Freescale/CW MCU v10.3_121211/MCU/ARM_GCC_Support/ewl/EWL_C/include/cstdint"
 700              		.file 3 "C:/temp2/Pex/Generated_Code/IO_Map.h"
 701              		.file 4 "C:/temp2/Pex/Generated_Code/PE_LDD.h"
 702              		.file 5 "C:/temp2/Pex/Generated_Code/OdometryGPIO.h"