   1              		.syntax unified
   2              		.cpu cortex-m4
   3              		.fpu softvfp
   4              		.eabi_attribute 20, 1
   5              		.eabi_attribute 21, 1
   6              		.eabi_attribute 23, 3
   7              		.eabi_attribute 24, 1
   8              		.eabi_attribute 25, 1
   9              		.eabi_attribute 26, 1
  10              		.eabi_attribute 30, 6
  11              		.eabi_attribute 34, 1
  12              		.eabi_attribute 18, 4
  13              		.thumb
  14              		.file	"GPIO1.c"
  15              		.text
  16              	.Ltext0:
  17              		.cfi_sections	.debug_frame
  18              		.section	.bss.DeviceDataPrv__DEFAULT_RTOS_ALLOC,"aw",%nobits
  19              		.align	2
  22              	DeviceDataPrv__DEFAULT_RTOS_ALLOC:
  23 0000 00000000 		.space	4
  24              		.section	.text.GPIO1_Init,"ax",%progbits
  25              		.align	2
  26              		.global	GPIO1_Init
  27              		.thumb
  28              		.thumb_func
  30              	GPIO1_Init:
  31              	.LFB0:
  32              		.file 1 "../Generated_Code/GPIO1.c"
   1:../Generated_Code/GPIO1.c **** /** ###################################################################
   2:../Generated_Code/GPIO1.c **** **     THIS COMPONENT MODULE IS GENERATED BY THE TOOL. DO NOT MODIFY IT.
   3:../Generated_Code/GPIO1.c **** **     Filename    : GPIO1.c
   4:../Generated_Code/GPIO1.c **** **     Project     : ProcessorExpert
   5:../Generated_Code/GPIO1.c **** **     Processor   : MK40DX256ZVLQ10
   6:../Generated_Code/GPIO1.c **** **     Component   : GPIO_LDD
   7:../Generated_Code/GPIO1.c **** **     Version     : Component 01.126, Driver 01.06, CPU db: 3.00.001
   8:../Generated_Code/GPIO1.c **** **     Compiler    : GNU C Compiler
   9:../Generated_Code/GPIO1.c **** **     Date/Time   : 2013-04-11, 15:40, # CodeGen: 91
  10:../Generated_Code/GPIO1.c **** **     Abstract    :
  11:../Generated_Code/GPIO1.c **** **         The HAL GPIO component will provide a low level API for unified
  12:../Generated_Code/GPIO1.c **** **         access to general purpose digital input/output pins across
  13:../Generated_Code/GPIO1.c **** **         various device designs.
  14:../Generated_Code/GPIO1.c **** **
  15:../Generated_Code/GPIO1.c **** **         RTOS drivers using HAL GPIO API will be simpler and more
  16:../Generated_Code/GPIO1.c **** **         portable to various microprocessors.
  17:../Generated_Code/GPIO1.c **** **     Settings    :
  18:../Generated_Code/GPIO1.c **** **          Component name                                 : GPIO1
  19:../Generated_Code/GPIO1.c **** **          Port                                           : PTC
  20:../Generated_Code/GPIO1.c **** **          Port width                                     : 32 bits
  21:../Generated_Code/GPIO1.c **** **          Mask of allocated pins                         : C
  22:../Generated_Code/GPIO1.c **** **          Interrupt service/event                        : Disabled
  23:../Generated_Code/GPIO1.c **** **          Bit fields                                     : 2
  24:../Generated_Code/GPIO1.c **** **            Bit field                                    : 
  25:../Generated_Code/GPIO1.c **** **              Field name                                 : EnableRightMotor
  26:../Generated_Code/GPIO1.c **** **              Pins                                       : 1
  27:../Generated_Code/GPIO1.c **** **                Pin                                      : 
  28:../Generated_Code/GPIO1.c **** **                  Pin                                    : PTC2/SPI0_PCS2/UART1_CTS_b/FTM0_CH1/LC
  29:../Generated_Code/GPIO1.c **** **                  Pin signal                             : 
  30:../Generated_Code/GPIO1.c **** **                  Initial pin direction                  : Output
  31:../Generated_Code/GPIO1.c **** **                    Initial output state                 : 0
  32:../Generated_Code/GPIO1.c **** **                  Initial pin event                      : Disabled
  33:../Generated_Code/GPIO1.c **** **                  Lock initialization function           : no
  34:../Generated_Code/GPIO1.c **** **            Bit field                                    : 
  35:../Generated_Code/GPIO1.c **** **              Field name                                 : EnableLeftMotor
  36:../Generated_Code/GPIO1.c **** **              Pins                                       : 1
  37:../Generated_Code/GPIO1.c **** **                Pin                                      : 
  38:../Generated_Code/GPIO1.c **** **                  Pin                                    : PTC3/SPI0_PCS1/UART1_RX/FTM0_CH2/LCD_P
  39:../Generated_Code/GPIO1.c **** **                  Pin signal                             : 
  40:../Generated_Code/GPIO1.c **** **                  Initial pin direction                  : Output
  41:../Generated_Code/GPIO1.c **** **                    Initial output state                 : 0
  42:../Generated_Code/GPIO1.c **** **                  Initial pin event                      : Disabled
  43:../Generated_Code/GPIO1.c **** **                  Lock initialization function           : no
  44:../Generated_Code/GPIO1.c **** **          Initialization                                 : 
  45:../Generated_Code/GPIO1.c **** **            Auto initialization                          : yes
  46:../Generated_Code/GPIO1.c **** **            Event mask                                   : 
  47:../Generated_Code/GPIO1.c **** **              OnPortEvent                                : Disabled
  48:../Generated_Code/GPIO1.c **** **     Contents    :
  49:../Generated_Code/GPIO1.c **** **         Init                    - LDD_TDeviceData* GPIO1_Init(LDD_TUserData *UserDataPtr);
  50:../Generated_Code/GPIO1.c **** **         Deinit                  - void GPIO1_Deinit(LDD_TDeviceData *DeviceDataPtr);
  51:../Generated_Code/GPIO1.c **** **         SetFieldValue           - void GPIO1_SetFieldValue(LDD_TDeviceData *DeviceDataPtr, LDD_G
  52:../Generated_Code/GPIO1.c **** **         GetFieldValue           - GPIO1_TFieldValue GPIO1_GetFieldValue(LDD_TDeviceData *DeviceD
  53:../Generated_Code/GPIO1.c **** **         ClearFieldBits          - void GPIO1_ClearFieldBits(LDD_TDeviceData *DeviceDataPtr, LDD_
  54:../Generated_Code/GPIO1.c **** **         SetFieldBits            - void GPIO1_SetFieldBits(LDD_TDeviceData *DeviceDataPtr, LDD_GP
  55:../Generated_Code/GPIO1.c **** **         ToggleFieldBits         - void GPIO1_ToggleFieldBits(LDD_TDeviceData *DeviceDataPtr, LDD
  56:../Generated_Code/GPIO1.c **** **         SetFieldInputDirection  - void GPIO1_SetFieldInputDirection(LDD_TDeviceData *DeviceDataP
  57:../Generated_Code/GPIO1.c **** **         SetFieldOutputDirection - void GPIO1_SetFieldOutputDirection(LDD_TDeviceData *DeviceData
  58:../Generated_Code/GPIO1.c **** **         ConnectPin              - LDD_TError GPIO1_ConnectPin(LDD_TDeviceData *DeviceDataPtr, LD
  59:../Generated_Code/GPIO1.c **** **
  60:../Generated_Code/GPIO1.c **** **     Copyright : 1997 - 2012 Freescale, Inc. All Rights Reserved.
  61:../Generated_Code/GPIO1.c **** **     
  62:../Generated_Code/GPIO1.c **** **     http      : www.freescale.com
  63:../Generated_Code/GPIO1.c **** **     mail      : support@freescale.com
  64:../Generated_Code/GPIO1.c **** ** ###################################################################*/
  65:../Generated_Code/GPIO1.c **** 
  66:../Generated_Code/GPIO1.c **** /* MODULE GPIO1. */
  67:../Generated_Code/GPIO1.c **** 
  68:../Generated_Code/GPIO1.c **** #include "GPIO1.h"
  69:../Generated_Code/GPIO1.c **** /* {Default RTOS Adapter} No RTOS includes */
  70:../Generated_Code/GPIO1.c **** #include "IO_Map.h"
  71:../Generated_Code/GPIO1.c **** 
  72:../Generated_Code/GPIO1.c **** typedef struct {
  73:../Generated_Code/GPIO1.c ****   LDD_TUserData *UserData;             /* RTOS device data structure */
  74:../Generated_Code/GPIO1.c **** } GPIO1_TDeviceData, *GPIO1_TDeviceDataPtr; /* Device data structure type */
  75:../Generated_Code/GPIO1.c **** /* {Default RTOS Adapter} Static object used for simulation of dynamic driver memory allocation */
  76:../Generated_Code/GPIO1.c **** static GPIO1_TDeviceData DeviceDataPrv__DEFAULT_RTOS_ALLOC;
  77:../Generated_Code/GPIO1.c **** /*
  78:../Generated_Code/GPIO1.c **** ** ===================================================================
  79:../Generated_Code/GPIO1.c **** **     Method      :  GPIO1_Init (component GPIO_LDD)
  80:../Generated_Code/GPIO1.c **** **
  81:../Generated_Code/GPIO1.c **** **     Description :
  82:../Generated_Code/GPIO1.c **** **         This method initializes the associated peripheral(s) and the
  83:../Generated_Code/GPIO1.c **** **         component internal variables. The method is called
  84:../Generated_Code/GPIO1.c **** **         automatically as a part of the application initialization
  85:../Generated_Code/GPIO1.c **** **         code.
  86:../Generated_Code/GPIO1.c **** **     Parameters  :
  87:../Generated_Code/GPIO1.c **** **         NAME            - DESCRIPTION
  88:../Generated_Code/GPIO1.c **** **       * UserDataPtr     - Pointer to the RTOS device
  89:../Generated_Code/GPIO1.c **** **                           structure. This pointer will be passed to
  90:../Generated_Code/GPIO1.c **** **                           all events as parameter.
  91:../Generated_Code/GPIO1.c **** **     Returns     :
  92:../Generated_Code/GPIO1.c **** **         ---             - Pointer to the dynamically allocated
  93:../Generated_Code/GPIO1.c **** **                           private structure or NULL if there was an
  94:../Generated_Code/GPIO1.c **** **                           error.
  95:../Generated_Code/GPIO1.c **** ** ===================================================================
  96:../Generated_Code/GPIO1.c **** */
  97:../Generated_Code/GPIO1.c **** LDD_TDeviceData* GPIO1_Init(LDD_TUserData *UserDataPtr)
  98:../Generated_Code/GPIO1.c **** {
  33              		.loc 1 98 0
  34              		.cfi_startproc
  35              		@ args = 0, pretend = 0, frame = 16
  36              		@ frame_needed = 1, uses_anonymous_args = 0
  37              		@ link register save eliminated.
  38 0000 80B4     		push	{r7}
  39              	.LCFI0:
  40              		.cfi_def_cfa_offset 4
  41              		.cfi_offset 7, -4
  42 0002 85B0     		sub	sp, sp, #20
  43              	.LCFI1:
  44              		.cfi_def_cfa_offset 24
  45 0004 00AF     		add	r7, sp, #0
  46              	.LCFI2:
  47              		.cfi_def_cfa_register 7
  48 0006 7860     		str	r0, [r7, #4]
  99:../Generated_Code/GPIO1.c ****   /* Allocate LDD device structure */
 100:../Generated_Code/GPIO1.c ****   GPIO1_TDeviceData *DeviceDataPrv;
 101:../Generated_Code/GPIO1.c **** 
 102:../Generated_Code/GPIO1.c ****   /* {Default RTOS Adapter} Driver memory allocation: Dynamic allocation is simulated by a pointer 
 103:../Generated_Code/GPIO1.c ****   DeviceDataPrv = &DeviceDataPrv__DEFAULT_RTOS_ALLOC;
  49              		.loc 1 103 0
  50 0008 40F20003 		movw	r3, #:lower16:DeviceDataPrv__DEFAULT_RTOS_ALLOC
  51 000c C0F20003 		movt	r3, #:upper16:DeviceDataPrv__DEFAULT_RTOS_ALLOC
  52 0010 FB60     		str	r3, [r7, #12]
 104:../Generated_Code/GPIO1.c ****   /* Save RTOS Device structure */
 105:../Generated_Code/GPIO1.c ****   DeviceDataPrv->UserData = UserDataPtr; /* Store the RTOS device structure */
  53              		.loc 1 105 0
  54 0012 FB68     		ldr	r3, [r7, #12]
  55 0014 7A68     		ldr	r2, [r7, #4]
  56 0016 1A60     		str	r2, [r3, #0]
 106:../Generated_Code/GPIO1.c ****   /* GPIOC_PDOR: PDO&=~0x0C */
 107:../Generated_Code/GPIO1.c ****   GPIOC_PDOR &= (uint32_t)~(uint32_t)(GPIO_PDOR_PDO(0x0C));                                        
  57              		.loc 1 107 0
  58 0018 4FF28003 		movw	r3, #61568
  59 001c C4F20F03 		movt	r3, 16399
  60 0020 4FF28002 		movw	r2, #61568
  61 0024 C4F20F02 		movt	r2, 16399
  62 0028 1268     		ldr	r2, [r2, #0]
  63 002a 22F00C02 		bic	r2, r2, #12
  64 002e 1A60     		str	r2, [r3, #0]
 108:../Generated_Code/GPIO1.c ****   /* GPIOC_PDDR: PDD|=0x0C */
 109:../Generated_Code/GPIO1.c ****   GPIOC_PDDR |= GPIO_PDDR_PDD(0x0C);                                                   
  65              		.loc 1 109 0
  66 0030 4FF28003 		movw	r3, #61568
  67 0034 C4F20F03 		movt	r3, 16399
  68 0038 4FF28002 		movw	r2, #61568
  69 003c C4F20F02 		movt	r2, 16399
  70 0040 5269     		ldr	r2, [r2, #20]
  71 0042 42F00C02 		orr	r2, r2, #12
  72 0046 5A61     		str	r2, [r3, #20]
 110:../Generated_Code/GPIO1.c ****   /* Initialization of Port Control registers */
 111:../Generated_Code/GPIO1.c ****   /* PORTC_PCR2: ISF=0,LK=0,MUX=1 */
 112:../Generated_Code/GPIO1.c ****   PORTC_PCR2 = (uint32_t)((PORTC_PCR2 & (uint32_t)~(uint32_t)(
  73              		.loc 1 112 0
  74 0048 4FF43042 		mov	r2, #45056
  75 004c C4F20402 		movt	r2, 16388
  76 0050 4FF43043 		mov	r3, #45056
  77 0054 C4F20403 		movt	r3, 16388
  78 0058 9B68     		ldr	r3, [r3, #8]
  79 005a 1946     		mov	r1, r3
  80 005c 47F6FF03 		movw	r3, #30975
  81 0060 CFF6FF63 		movt	r3, 65279
  82 0064 0B40     		ands	r3, r3, r1
  83 0066 43F48073 		orr	r3, r3, #256
  84 006a 9360     		str	r3, [r2, #8]
 113:../Generated_Code/GPIO1.c ****                 PORT_PCR_ISF_MASK |
 114:../Generated_Code/GPIO1.c ****                 PORT_PCR_LK_MASK |
 115:../Generated_Code/GPIO1.c ****                 PORT_PCR_MUX(0x06)
 116:../Generated_Code/GPIO1.c ****                )) | (uint32_t)(
 117:../Generated_Code/GPIO1.c ****                 PORT_PCR_MUX(0x01)
 118:../Generated_Code/GPIO1.c ****                ));                                                  
 119:../Generated_Code/GPIO1.c ****   /* PORTC_PCR3: ISF=0,LK=0,MUX=1 */
 120:../Generated_Code/GPIO1.c ****   PORTC_PCR3 = (uint32_t)((PORTC_PCR3 & (uint32_t)~(uint32_t)(
  85              		.loc 1 120 0
  86 006c 4FF43042 		mov	r2, #45056
  87 0070 C4F20402 		movt	r2, 16388
  88 0074 4FF43043 		mov	r3, #45056
  89 0078 C4F20403 		movt	r3, 16388
  90 007c DB68     		ldr	r3, [r3, #12]
  91 007e 1946     		mov	r1, r3
  92 0080 47F6FF03 		movw	r3, #30975
  93 0084 CFF6FF63 		movt	r3, 65279
  94 0088 0B40     		ands	r3, r3, r1
  95 008a 43F48073 		orr	r3, r3, #256
  96 008e D360     		str	r3, [r2, #12]
 121:../Generated_Code/GPIO1.c ****                 PORT_PCR_ISF_MASK |
 122:../Generated_Code/GPIO1.c ****                 PORT_PCR_LK_MASK |
 123:../Generated_Code/GPIO1.c ****                 PORT_PCR_MUX(0x06)
 124:../Generated_Code/GPIO1.c ****                )) | (uint32_t)(
 125:../Generated_Code/GPIO1.c ****                 PORT_PCR_MUX(0x01)
 126:../Generated_Code/GPIO1.c ****                ));                                                  
 127:../Generated_Code/GPIO1.c ****   /* Registration of the device structure */
 128:../Generated_Code/GPIO1.c ****   PE_LDD_RegisterDeviceStructure(PE_LDD_COMPONENT_GPIO1_ID,DeviceDataPrv);
  97              		.loc 1 128 0
  98 0090 40F20003 		movw	r3, #:lower16:PE_LDD_DeviceDataList
  99 0094 C0F20003 		movt	r3, #:upper16:PE_LDD_DeviceDataList
 100 0098 FA68     		ldr	r2, [r7, #12]
 101 009a 5A60     		str	r2, [r3, #4]
 129:../Generated_Code/GPIO1.c ****   return ((LDD_TDeviceData *)DeviceDataPrv);
 102              		.loc 1 129 0
 103 009c FB68     		ldr	r3, [r7, #12]
 130:../Generated_Code/GPIO1.c **** }
 104              		.loc 1 130 0
 105 009e 1846     		mov	r0, r3
 106 00a0 07F11407 		add	r7, r7, #20
 107 00a4 BD46     		mov	sp, r7
 108 00a6 80BC     		pop	{r7}
 109 00a8 7047     		bx	lr
 110              		.cfi_endproc
 111              	.LFE0:
 113 00aa 00BF     		.section	.text.GPIO1_Deinit,"ax",%progbits
 114              		.align	2
 115              		.global	GPIO1_Deinit
 116              		.thumb
 117              		.thumb_func
 119              	GPIO1_Deinit:
 120              	.LFB1:
 131:../Generated_Code/GPIO1.c **** 
 132:../Generated_Code/GPIO1.c **** /*
 133:../Generated_Code/GPIO1.c **** ** ===================================================================
 134:../Generated_Code/GPIO1.c **** **     Method      :  GPIO1_Deinit (component GPIO_LDD)
 135:../Generated_Code/GPIO1.c **** **
 136:../Generated_Code/GPIO1.c **** **     Description :
 137:../Generated_Code/GPIO1.c **** **         This method disables the device and frees the device data
 138:../Generated_Code/GPIO1.c **** **         structure memory.
 139:../Generated_Code/GPIO1.c **** **     Parameters  :
 140:../Generated_Code/GPIO1.c **** **         NAME            - DESCRIPTION
 141:../Generated_Code/GPIO1.c **** **       * DeviceDataPtr   - Pointer to device data
 142:../Generated_Code/GPIO1.c **** **                           structure pointer.
 143:../Generated_Code/GPIO1.c **** **     Returns     : Nothing
 144:../Generated_Code/GPIO1.c **** ** ===================================================================
 145:../Generated_Code/GPIO1.c **** */
 146:../Generated_Code/GPIO1.c **** void GPIO1_Deinit(LDD_TDeviceData *DeviceDataPtr)
 147:../Generated_Code/GPIO1.c **** {
 121              		.loc 1 147 0
 122              		.cfi_startproc
 123              		@ args = 0, pretend = 0, frame = 8
 124              		@ frame_needed = 1, uses_anonymous_args = 0
 125              		@ link register save eliminated.
 126 0000 80B4     		push	{r7}
 127              	.LCFI3:
 128              		.cfi_def_cfa_offset 4
 129              		.cfi_offset 7, -4
 130 0002 83B0     		sub	sp, sp, #12
 131              	.LCFI4:
 132              		.cfi_def_cfa_offset 16
 133 0004 00AF     		add	r7, sp, #0
 134              	.LCFI5:
 135              		.cfi_def_cfa_register 7
 136 0006 7860     		str	r0, [r7, #4]
 148:../Generated_Code/GPIO1.c ****   (void)DeviceDataPtr;                 /* Parameter is not used, suppress unused argument warning *
 149:../Generated_Code/GPIO1.c ****   /* PORTC_PCR2: IRQC=0 */
 150:../Generated_Code/GPIO1.c ****   PORTC_PCR2 &= (uint32_t)~(uint32_t)(PORT_PCR_IRQC(0x0F));                                        
 137              		.loc 1 150 0
 138 0008 4FF43043 		mov	r3, #45056
 139 000c C4F20403 		movt	r3, 16388
 140 0010 4FF43042 		mov	r2, #45056
 141 0014 C4F20402 		movt	r2, 16388
 142 0018 9268     		ldr	r2, [r2, #8]
 143 001a 22F47022 		bic	r2, r2, #983040
 144 001e 9A60     		str	r2, [r3, #8]
 151:../Generated_Code/GPIO1.c ****   /* PORTC_PCR3: IRQC=0 */
 152:../Generated_Code/GPIO1.c ****   PORTC_PCR3 &= (uint32_t)~(uint32_t)(PORT_PCR_IRQC(0x0F));                                        
 145              		.loc 1 152 0
 146 0020 4FF43043 		mov	r3, #45056
 147 0024 C4F20403 		movt	r3, 16388
 148 0028 4FF43042 		mov	r2, #45056
 149 002c C4F20402 		movt	r2, 16388
 150 0030 D268     		ldr	r2, [r2, #12]
 151 0032 22F47022 		bic	r2, r2, #983040
 152 0036 DA60     		str	r2, [r3, #12]
 153:../Generated_Code/GPIO1.c ****   /* GPIOC_PDDR: PDD&=~0x0C */
 154:../Generated_Code/GPIO1.c ****   GPIOC_PDDR &= (uint32_t)~(uint32_t)(GPIO_PDDR_PDD(0x0C));                                        
 153              		.loc 1 154 0
 154 0038 4FF28003 		movw	r3, #61568
 155 003c C4F20F03 		movt	r3, 16399
 156 0040 4FF28002 		movw	r2, #61568
 157 0044 C4F20F02 		movt	r2, 16399
 158 0048 5269     		ldr	r2, [r2, #20]
 159 004a 22F00C02 		bic	r2, r2, #12
 160 004e 5A61     		str	r2, [r3, #20]
 155:../Generated_Code/GPIO1.c ****   /* Unregistration of the device structure */
 156:../Generated_Code/GPIO1.c ****   PE_LDD_UnregisterDeviceStructure(PE_LDD_COMPONENT_GPIO1_ID);
 161              		.loc 1 156 0
 162 0050 40F20003 		movw	r3, #:lower16:PE_LDD_DeviceDataList
 163 0054 C0F20003 		movt	r3, #:upper16:PE_LDD_DeviceDataList
 164 0058 4FF00002 		mov	r2, #0
 165 005c 5A60     		str	r2, [r3, #4]
 157:../Generated_Code/GPIO1.c ****   /* Deallocation of the device structure */
 158:../Generated_Code/GPIO1.c ****   /* {Default RTOS Adapter} Driver memory deallocation: Dynamic allocation is simulated, no dealloc
 159:../Generated_Code/GPIO1.c **** }
 166              		.loc 1 159 0
 167 005e 07F10C07 		add	r7, r7, #12
 168 0062 BD46     		mov	sp, r7
 169 0064 80BC     		pop	{r7}
 170 0066 7047     		bx	lr
 171              		.cfi_endproc
 172              	.LFE1:
 174              		.section	.text.GPIO1_SetFieldValue,"ax",%progbits
 175              		.align	2
 176              		.global	GPIO1_SetFieldValue
 177              		.thumb
 178              		.thumb_func
 180              	GPIO1_SetFieldValue:
 181              	.LFB2:
 160:../Generated_Code/GPIO1.c **** 
 161:../Generated_Code/GPIO1.c **** /*
 162:../Generated_Code/GPIO1.c **** ** ===================================================================
 163:../Generated_Code/GPIO1.c **** **     Method      :  GPIO1_SetFieldValue (component GPIO_LDD)
 164:../Generated_Code/GPIO1.c **** **
 165:../Generated_Code/GPIO1.c **** **     Description :
 166:../Generated_Code/GPIO1.c **** **         This method sets the output data value of the specified bit
 167:../Generated_Code/GPIO1.c **** **         field.
 168:../Generated_Code/GPIO1.c **** **     Parameters  :
 169:../Generated_Code/GPIO1.c **** **         NAME            - DESCRIPTION
 170:../Generated_Code/GPIO1.c **** **       * DeviceDataPtr   - Device data structure
 171:../Generated_Code/GPIO1.c **** **                           pointer returned by <Init> method.
 172:../Generated_Code/GPIO1.c **** **         Field           - Bit field to write. Bit fields are
 173:../Generated_Code/GPIO1.c **** **                           defined during design time and for each bit
 174:../Generated_Code/GPIO1.c **** **                           field there is a generated constant.
 175:../Generated_Code/GPIO1.c **** **         Value           - Aligned data value to writting to the
 176:../Generated_Code/GPIO1.c **** **                           specified bit field. The bit 0 corresponds
 177:../Generated_Code/GPIO1.c **** **                           with the pin which has index 0 within the
 178:../Generated_Code/GPIO1.c **** **                           given bit field, the bit 1 corresponds with
 179:../Generated_Code/GPIO1.c **** **                           the pin which has index 1 within the given
 180:../Generated_Code/GPIO1.c **** **                           bit field, etc.
 181:../Generated_Code/GPIO1.c **** **     Returns     : Nothing
 182:../Generated_Code/GPIO1.c **** ** ===================================================================
 183:../Generated_Code/GPIO1.c **** */
 184:../Generated_Code/GPIO1.c **** void GPIO1_SetFieldValue(LDD_TDeviceData *DeviceDataPtr, LDD_GPIO_TBitField Field, GPIO1_TFieldValu
 185:../Generated_Code/GPIO1.c **** {
 182              		.loc 1 185 0
 183              		.cfi_startproc
 184              		@ args = 0, pretend = 0, frame = 16
 185              		@ frame_needed = 1, uses_anonymous_args = 0
 186              		@ link register save eliminated.
 187 0000 80B4     		push	{r7}
 188              	.LCFI6:
 189              		.cfi_def_cfa_offset 4
 190              		.cfi_offset 7, -4
 191 0002 85B0     		sub	sp, sp, #20
 192              	.LCFI7:
 193              		.cfi_def_cfa_offset 24
 194 0004 00AF     		add	r7, sp, #0
 195              	.LCFI8:
 196              		.cfi_def_cfa_register 7
 197 0006 F860     		str	r0, [r7, #12]
 198 0008 B960     		str	r1, [r7, #8]
 199 000a 7A60     		str	r2, [r7, #4]
 186:../Generated_Code/GPIO1.c ****   (void)DeviceDataPtr;                 /* Parameter is not used, suppress unused argument warning *
 187:../Generated_Code/GPIO1.c ****   switch (Field) {                     /* no break */
 200              		.loc 1 187 0
 201 000c BB68     		ldr	r3, [r7, #8]
 202 000e 002B     		cmp	r3, #0
 203 0010 02D0     		beq	.L5
 204 0012 012B     		cmp	r3, #1
 205 0014 13D0     		beq	.L6
 206 0016 25E0     		b	.L8
 207              	.L5:
 188:../Generated_Code/GPIO1.c ****     case EnableRightMotor: {           /* bit field #0 */
 189:../Generated_Code/GPIO1.c ****       GPIO_PDD_SetPortDataOutput(GPIO1_MODULE_BASE_ADDRESS,
 208              		.loc 1 189 0
 209 0018 4FF28003 		movw	r3, #61568
 210 001c C4F20F03 		movt	r3, 16399
 211 0020 4FF28002 		movw	r2, #61568
 212 0024 C4F20F02 		movt	r2, 16399
 213 0028 1268     		ldr	r2, [r2, #0]
 214 002a 22F00401 		bic	r1, r2, #4
 215 002e 7A68     		ldr	r2, [r7, #4]
 216 0030 4FEA8202 		lsl	r2, r2, #2
 217 0034 02F00402 		and	r2, r2, #4
 218 0038 0A43     		orrs	r2, r2, r1
 219 003a 1A60     		str	r2, [r3, #0]
 190:../Generated_Code/GPIO1.c ****         (
 191:../Generated_Code/GPIO1.c ****           GPIO_PDD_GetPortDataOutput(GPIO1_MODULE_BASE_ADDRESS)
 192:../Generated_Code/GPIO1.c ****           & ((GPIO1_TPortValue)(~((GPIO1_TPortValue)GPIO1_EnableRightMotor_MASK)))
 193:../Generated_Code/GPIO1.c ****         )
 194:../Generated_Code/GPIO1.c ****         | (
 195:../Generated_Code/GPIO1.c ****           ((GPIO1_TPortValue)(Value << GPIO1_EnableRightMotor_START_BIT))
 196:../Generated_Code/GPIO1.c ****           & ((GPIO1_TPortValue)GPIO1_EnableRightMotor_MASK)
 197:../Generated_Code/GPIO1.c ****         )
 198:../Generated_Code/GPIO1.c ****       );
 199:../Generated_Code/GPIO1.c ****       break;
 220              		.loc 1 199 0
 221 003c 13E0     		b	.L3
 222              	.L6:
 200:../Generated_Code/GPIO1.c ****     }
 201:../Generated_Code/GPIO1.c ****     case EnableLeftMotor: {            /* bit field #1 */
 202:../Generated_Code/GPIO1.c ****       GPIO_PDD_SetPortDataOutput(GPIO1_MODULE_BASE_ADDRESS,
 223              		.loc 1 202 0
 224 003e 4FF28003 		movw	r3, #61568
 225 0042 C4F20F03 		movt	r3, 16399
 226 0046 4FF28002 		movw	r2, #61568
 227 004a C4F20F02 		movt	r2, 16399
 228 004e 1268     		ldr	r2, [r2, #0]
 229 0050 22F00801 		bic	r1, r2, #8
 230 0054 7A68     		ldr	r2, [r7, #4]
 231 0056 4FEAC202 		lsl	r2, r2, #3
 232 005a 02F00802 		and	r2, r2, #8
 233 005e 0A43     		orrs	r2, r2, r1
 234 0060 1A60     		str	r2, [r3, #0]
 203:../Generated_Code/GPIO1.c ****         (
 204:../Generated_Code/GPIO1.c ****           GPIO_PDD_GetPortDataOutput(GPIO1_MODULE_BASE_ADDRESS)
 205:../Generated_Code/GPIO1.c ****           & ((GPIO1_TPortValue)(~((GPIO1_TPortValue)GPIO1_EnableLeftMotor_MASK)))
 206:../Generated_Code/GPIO1.c ****         )
 207:../Generated_Code/GPIO1.c ****         | (
 208:../Generated_Code/GPIO1.c ****           ((GPIO1_TPortValue)(Value << GPIO1_EnableLeftMotor_START_BIT))
 209:../Generated_Code/GPIO1.c ****           & ((GPIO1_TPortValue)GPIO1_EnableLeftMotor_MASK)
 210:../Generated_Code/GPIO1.c ****         )
 211:../Generated_Code/GPIO1.c ****       );
 212:../Generated_Code/GPIO1.c ****       break;
 235              		.loc 1 212 0
 236 0062 00E0     		b	.L3
 237              	.L8:
 213:../Generated_Code/GPIO1.c ****     }
 214:../Generated_Code/GPIO1.c ****     default:
 215:../Generated_Code/GPIO1.c ****       break;                           /* Invalid Field is not treated, result is undefined */
 238              		.loc 1 215 0
 239 0064 00BF     		nop
 240              	.L3:
 216:../Generated_Code/GPIO1.c ****   } /* switch (Field) */
 217:../Generated_Code/GPIO1.c **** }
 241              		.loc 1 217 0
 242 0066 07F11407 		add	r7, r7, #20
 243 006a BD46     		mov	sp, r7
 244 006c 80BC     		pop	{r7}
 245 006e 7047     		bx	lr
 246              		.cfi_endproc
 247              	.LFE2:
 249              		.section	.text.GPIO1_GetFieldValue,"ax",%progbits
 250              		.align	2
 251              		.global	GPIO1_GetFieldValue
 252              		.thumb
 253              		.thumb_func
 255              	GPIO1_GetFieldValue:
 256              	.LFB3:
 218:../Generated_Code/GPIO1.c **** 
 219:../Generated_Code/GPIO1.c **** /*
 220:../Generated_Code/GPIO1.c **** ** ===================================================================
 221:../Generated_Code/GPIO1.c **** **     Method      :  GPIO1_GetFieldValue (component GPIO_LDD)
 222:../Generated_Code/GPIO1.c **** **
 223:../Generated_Code/GPIO1.c **** **     Description :
 224:../Generated_Code/GPIO1.c **** **         This method returns the current input data of the specified
 225:../Generated_Code/GPIO1.c **** **         field.
 226:../Generated_Code/GPIO1.c **** **     Parameters  :
 227:../Generated_Code/GPIO1.c **** **         NAME            - DESCRIPTION
 228:../Generated_Code/GPIO1.c **** **       * DeviceDataPtr   - Device data structure
 229:../Generated_Code/GPIO1.c **** **                           pointer returned by <Init> method.
 230:../Generated_Code/GPIO1.c **** **         Field           - Bit field to reading. Bit fields are
 231:../Generated_Code/GPIO1.c **** **                           defined during design time and for each bit
 232:../Generated_Code/GPIO1.c **** **                           field there is a generated constant.
 233:../Generated_Code/GPIO1.c **** **     Returns     :
 234:../Generated_Code/GPIO1.c **** **         ---             - Aligned current port input value masked
 235:../Generated_Code/GPIO1.c **** **                           for allocated pins of the field. The bit 0
 236:../Generated_Code/GPIO1.c **** **                           corresponds with the pin which has index 0
 237:../Generated_Code/GPIO1.c **** **                           within the given bit field, the bit 1
 238:../Generated_Code/GPIO1.c **** **                           corresponds with the pin which has index 1
 239:../Generated_Code/GPIO1.c **** **                           within the given bit field, etc.
 240:../Generated_Code/GPIO1.c **** ** ===================================================================
 241:../Generated_Code/GPIO1.c **** */
 242:../Generated_Code/GPIO1.c **** GPIO1_TFieldValue GPIO1_GetFieldValue(LDD_TDeviceData *DeviceDataPtr, LDD_GPIO_TBitField Field)
 243:../Generated_Code/GPIO1.c **** {
 257              		.loc 1 243 0
 258              		.cfi_startproc
 259              		@ args = 0, pretend = 0, frame = 8
 260              		@ frame_needed = 1, uses_anonymous_args = 0
 261              		@ link register save eliminated.
 262 0000 80B4     		push	{r7}
 263              	.LCFI9:
 264              		.cfi_def_cfa_offset 4
 265              		.cfi_offset 7, -4
 266 0002 83B0     		sub	sp, sp, #12
 267              	.LCFI10:
 268              		.cfi_def_cfa_offset 16
 269 0004 00AF     		add	r7, sp, #0
 270              	.LCFI11:
 271              		.cfi_def_cfa_register 7
 272 0006 7860     		str	r0, [r7, #4]
 273 0008 3960     		str	r1, [r7, #0]
 244:../Generated_Code/GPIO1.c ****   (void)DeviceDataPtr;                 /* Parameter is not used, suppress unused argument warning *
 245:../Generated_Code/GPIO1.c ****   switch (Field) {                     /* no break */
 274              		.loc 1 245 0
 275 000a 3B68     		ldr	r3, [r7, #0]
 276 000c 002B     		cmp	r3, #0
 277 000e 02D0     		beq	.L11
 278 0010 012B     		cmp	r3, #1
 279 0012 0AD0     		beq	.L12
 280 0014 13E0     		b	.L14
 281              	.L11:
 246:../Generated_Code/GPIO1.c ****     case EnableRightMotor: {           /* bit field #0 */
 247:../Generated_Code/GPIO1.c ****       return
 248:../Generated_Code/GPIO1.c ****         (GPIO1_TFieldValue)(
 249:../Generated_Code/GPIO1.c ****           (
 250:../Generated_Code/GPIO1.c ****             GPIO_PDD_GetPortDataInput(GPIO1_MODULE_BASE_ADDRESS)
 282              		.loc 1 250 0
 283 0016 4FF28003 		movw	r3, #61568
 284 001a C4F20F03 		movt	r3, 16399
 285 001e 1B69     		ldr	r3, [r3, #16]
 251:../Generated_Code/GPIO1.c ****             & (GPIO1_TPortValue)GPIO1_EnableRightMotor_MASK
 286              		.loc 1 251 0
 287 0020 03F00403 		and	r3, r3, #4
 247:../Generated_Code/GPIO1.c ****       return
 288              		.loc 1 247 0
 289 0024 4FEA9303 		lsr	r3, r3, #2
 290 0028 0CE0     		b	.L13
 291              	.L12:
 252:../Generated_Code/GPIO1.c ****           )
 253:../Generated_Code/GPIO1.c ****           >> GPIO1_EnableRightMotor_START_BIT
 254:../Generated_Code/GPIO1.c ****         );
 255:../Generated_Code/GPIO1.c ****     }
 256:../Generated_Code/GPIO1.c ****     case EnableLeftMotor: {            /* bit field #1 */
 257:../Generated_Code/GPIO1.c ****       return
 258:../Generated_Code/GPIO1.c ****         (GPIO1_TFieldValue)(
 259:../Generated_Code/GPIO1.c ****           (
 260:../Generated_Code/GPIO1.c ****             GPIO_PDD_GetPortDataInput(GPIO1_MODULE_BASE_ADDRESS)
 292              		.loc 1 260 0
 293 002a 4FF28003 		movw	r3, #61568
 294 002e C4F20F03 		movt	r3, 16399
 295 0032 1B69     		ldr	r3, [r3, #16]
 261:../Generated_Code/GPIO1.c ****             & (GPIO1_TPortValue)GPIO1_EnableLeftMotor_MASK
 296              		.loc 1 261 0
 297 0034 03F00803 		and	r3, r3, #8
 257:../Generated_Code/GPIO1.c ****       return
 298              		.loc 1 257 0
 299 0038 4FEAD303 		lsr	r3, r3, #3
 300 003c 02E0     		b	.L13
 301              	.L14:
 262:../Generated_Code/GPIO1.c ****           )
 263:../Generated_Code/GPIO1.c ****           >> GPIO1_EnableLeftMotor_START_BIT
 264:../Generated_Code/GPIO1.c ****         );
 265:../Generated_Code/GPIO1.c ****     }
 266:../Generated_Code/GPIO1.c ****     default:
 267:../Generated_Code/GPIO1.c ****       break;                           /* Invalid BitField is not treated, result is undefined */
 302              		.loc 1 267 0
 303 003e 00BF     		nop
 268:../Generated_Code/GPIO1.c ****   } /* switch (Field) */
 269:../Generated_Code/GPIO1.c ****   return (GPIO1_TFieldValue)0U;
 304              		.loc 1 269 0
 305 0040 4FF00003 		mov	r3, #0
 306              	.L13:
 270:../Generated_Code/GPIO1.c **** }
 307              		.loc 1 270 0
 308 0044 1846     		mov	r0, r3
 309 0046 07F10C07 		add	r7, r7, #12
 310 004a BD46     		mov	sp, r7
 311 004c 80BC     		pop	{r7}
 312 004e 7047     		bx	lr
 313              		.cfi_endproc
 314              	.LFE3:
 316              		.section	.text.GPIO1_ClearFieldBits,"ax",%progbits
 317              		.align	2
 318              		.global	GPIO1_ClearFieldBits
 319              		.thumb
 320              		.thumb_func
 322              	GPIO1_ClearFieldBits:
 323              	.LFB4:
 271:../Generated_Code/GPIO1.c **** 
 272:../Generated_Code/GPIO1.c **** /*
 273:../Generated_Code/GPIO1.c **** ** ===================================================================
 274:../Generated_Code/GPIO1.c **** **     Method      :  GPIO1_ClearFieldBits (component GPIO_LDD)
 275:../Generated_Code/GPIO1.c **** **
 276:../Generated_Code/GPIO1.c **** **     Description :
 277:../Generated_Code/GPIO1.c **** **         This method drives the specified bits of the specified bit
 278:../Generated_Code/GPIO1.c **** **         field to the inactive level.
 279:../Generated_Code/GPIO1.c **** **     Parameters  :
 280:../Generated_Code/GPIO1.c **** **         NAME            - DESCRIPTION
 281:../Generated_Code/GPIO1.c **** **       * DeviceDataPtr   - Device data structure
 282:../Generated_Code/GPIO1.c **** **                           pointer returned by <Init> method.
 283:../Generated_Code/GPIO1.c **** **         Field           - Bit field to write. Bit fields are
 284:../Generated_Code/GPIO1.c **** **                           defined during design time and for each bit
 285:../Generated_Code/GPIO1.c **** **                           field there is a generated constant.
 286:../Generated_Code/GPIO1.c **** **         Mask            - Aligned mask of bits to setting the
 287:../Generated_Code/GPIO1.c **** **                           inactive level. Each field pin has
 288:../Generated_Code/GPIO1.c **** **                           corresponding bit in the mask. Bit value 0
 289:../Generated_Code/GPIO1.c **** **                           means not selected bit, bit value 1 means
 290:../Generated_Code/GPIO1.c **** **                           selected bit. The bit 0 corresponds with
 291:../Generated_Code/GPIO1.c **** **                           the pin which has index 0 within the given
 292:../Generated_Code/GPIO1.c **** **                           bit field, the bit 1 corresponds with the
 293:../Generated_Code/GPIO1.c **** **                           pin which has index 1 within the given bit
 294:../Generated_Code/GPIO1.c **** **                           field, etc.
 295:../Generated_Code/GPIO1.c **** **     Returns     : Nothing
 296:../Generated_Code/GPIO1.c **** ** ===================================================================
 297:../Generated_Code/GPIO1.c **** */
 298:../Generated_Code/GPIO1.c **** void GPIO1_ClearFieldBits(LDD_TDeviceData *DeviceDataPtr, LDD_GPIO_TBitField Field, GPIO1_TFieldVal
 299:../Generated_Code/GPIO1.c **** {
 324              		.loc 1 299 0
 325              		.cfi_startproc
 326              		@ args = 0, pretend = 0, frame = 16
 327              		@ frame_needed = 1, uses_anonymous_args = 0
 328              		@ link register save eliminated.
 329 0000 80B4     		push	{r7}
 330              	.LCFI12:
 331              		.cfi_def_cfa_offset 4
 332              		.cfi_offset 7, -4
 333 0002 85B0     		sub	sp, sp, #20
 334              	.LCFI13:
 335              		.cfi_def_cfa_offset 24
 336 0004 00AF     		add	r7, sp, #0
 337              	.LCFI14:
 338              		.cfi_def_cfa_register 7
 339 0006 F860     		str	r0, [r7, #12]
 340 0008 B960     		str	r1, [r7, #8]
 341 000a 7A60     		str	r2, [r7, #4]
 300:../Generated_Code/GPIO1.c ****   (void)DeviceDataPtr;                 /* Parameter is not used, suppress unused argument warning *
 301:../Generated_Code/GPIO1.c ****   switch (Field) {                     /* no break */
 342              		.loc 1 301 0
 343 000c BB68     		ldr	r3, [r7, #8]
 344 000e 002B     		cmp	r3, #0
 345 0010 02D0     		beq	.L17
 346 0012 012B     		cmp	r3, #1
 347 0014 0BD0     		beq	.L18
 348 0016 15E0     		b	.L20
 349              	.L17:
 302:../Generated_Code/GPIO1.c ****     case EnableRightMotor: {           /* bit field #0 */
 303:../Generated_Code/GPIO1.c ****       GPIO_PDD_ClearPortDataOutputMask(GPIO1_MODULE_BASE_ADDRESS,
 350              		.loc 1 303 0
 351 0018 4FF28003 		movw	r3, #61568
 352 001c C4F20F03 		movt	r3, 16399
 353 0020 7A68     		ldr	r2, [r7, #4]
 354 0022 4FEA8202 		lsl	r2, r2, #2
 355 0026 02F00402 		and	r2, r2, #4
 356 002a 9A60     		str	r2, [r3, #8]
 304:../Generated_Code/GPIO1.c ****         ((GPIO1_TPortValue)GPIO1_EnableRightMotor_MASK)
 305:../Generated_Code/GPIO1.c ****         & ((GPIO1_TPortValue)(Mask << GPIO1_EnableRightMotor_START_BIT))
 306:../Generated_Code/GPIO1.c ****       );
 307:../Generated_Code/GPIO1.c ****       break;
 357              		.loc 1 307 0
 358 002c 0BE0     		b	.L15
 359              	.L18:
 308:../Generated_Code/GPIO1.c ****     }
 309:../Generated_Code/GPIO1.c ****     case EnableLeftMotor: {            /* bit field #1 */
 310:../Generated_Code/GPIO1.c ****       GPIO_PDD_ClearPortDataOutputMask(GPIO1_MODULE_BASE_ADDRESS,
 360              		.loc 1 310 0
 361 002e 4FF28003 		movw	r3, #61568
 362 0032 C4F20F03 		movt	r3, 16399
 363 0036 7A68     		ldr	r2, [r7, #4]
 364 0038 4FEAC202 		lsl	r2, r2, #3
 365 003c 02F00802 		and	r2, r2, #8
 366 0040 9A60     		str	r2, [r3, #8]
 311:../Generated_Code/GPIO1.c ****         ((GPIO1_TPortValue)GPIO1_EnableLeftMotor_MASK)
 312:../Generated_Code/GPIO1.c ****         & ((GPIO1_TPortValue)(Mask << GPIO1_EnableLeftMotor_START_BIT))
 313:../Generated_Code/GPIO1.c ****       );
 314:../Generated_Code/GPIO1.c ****       break;
 367              		.loc 1 314 0
 368 0042 00E0     		b	.L15
 369              	.L20:
 315:../Generated_Code/GPIO1.c ****     }
 316:../Generated_Code/GPIO1.c ****     default:
 317:../Generated_Code/GPIO1.c ****       break;                           /* Invalid Field is not treated, result is undefined */
 370              		.loc 1 317 0
 371 0044 00BF     		nop
 372              	.L15:
 318:../Generated_Code/GPIO1.c ****   } /* switch (Field) */
 319:../Generated_Code/GPIO1.c **** }
 373              		.loc 1 319 0
 374 0046 07F11407 		add	r7, r7, #20
 375 004a BD46     		mov	sp, r7
 376 004c 80BC     		pop	{r7}
 377 004e 7047     		bx	lr
 378              		.cfi_endproc
 379              	.LFE4:
 381              		.section	.text.GPIO1_SetFieldBits,"ax",%progbits
 382              		.align	2
 383              		.global	GPIO1_SetFieldBits
 384              		.thumb
 385              		.thumb_func
 387              	GPIO1_SetFieldBits:
 388              	.LFB5:
 320:../Generated_Code/GPIO1.c **** 
 321:../Generated_Code/GPIO1.c **** /*
 322:../Generated_Code/GPIO1.c **** ** ===================================================================
 323:../Generated_Code/GPIO1.c **** **     Method      :  GPIO1_SetFieldBits (component GPIO_LDD)
 324:../Generated_Code/GPIO1.c **** **
 325:../Generated_Code/GPIO1.c **** **     Description :
 326:../Generated_Code/GPIO1.c **** **         This method drives the specified bits of the specified bit
 327:../Generated_Code/GPIO1.c **** **         field to the active level.
 328:../Generated_Code/GPIO1.c **** **     Parameters  :
 329:../Generated_Code/GPIO1.c **** **         NAME            - DESCRIPTION
 330:../Generated_Code/GPIO1.c **** **       * DeviceDataPtr   - Device data structure
 331:../Generated_Code/GPIO1.c **** **                           pointer returned by <Init> method.
 332:../Generated_Code/GPIO1.c **** **         Field           - Bit field to write. Bit fields are
 333:../Generated_Code/GPIO1.c **** **                           defined during design time and for each bit
 334:../Generated_Code/GPIO1.c **** **                           field there is a generated constant.
 335:../Generated_Code/GPIO1.c **** **         Mask            - Aligned mask of bits to setting the
 336:../Generated_Code/GPIO1.c **** **                           active level. Each field pin has
 337:../Generated_Code/GPIO1.c **** **                           corresponding bit in the mask. Bit value 0
 338:../Generated_Code/GPIO1.c **** **                           means not selected bit, bit value 1 means
 339:../Generated_Code/GPIO1.c **** **                           selected bit. The bit 0 corresponds with
 340:../Generated_Code/GPIO1.c **** **                           the pin which has index 0 within the given
 341:../Generated_Code/GPIO1.c **** **                           bit field, the bit 1 corresponds with the
 342:../Generated_Code/GPIO1.c **** **                           pin which has index 1 within the given bit
 343:../Generated_Code/GPIO1.c **** **                           field, etc.
 344:../Generated_Code/GPIO1.c **** **     Returns     : Nothing
 345:../Generated_Code/GPIO1.c **** ** ===================================================================
 346:../Generated_Code/GPIO1.c **** */
 347:../Generated_Code/GPIO1.c **** void GPIO1_SetFieldBits(LDD_TDeviceData *DeviceDataPtr, LDD_GPIO_TBitField Field, GPIO1_TFieldValue
 348:../Generated_Code/GPIO1.c **** {
 389              		.loc 1 348 0
 390              		.cfi_startproc
 391              		@ args = 0, pretend = 0, frame = 16
 392              		@ frame_needed = 1, uses_anonymous_args = 0
 393              		@ link register save eliminated.
 394 0000 80B4     		push	{r7}
 395              	.LCFI15:
 396              		.cfi_def_cfa_offset 4
 397              		.cfi_offset 7, -4
 398 0002 85B0     		sub	sp, sp, #20
 399              	.LCFI16:
 400              		.cfi_def_cfa_offset 24
 401 0004 00AF     		add	r7, sp, #0
 402              	.LCFI17:
 403              		.cfi_def_cfa_register 7
 404 0006 F860     		str	r0, [r7, #12]
 405 0008 B960     		str	r1, [r7, #8]
 406 000a 7A60     		str	r2, [r7, #4]
 349:../Generated_Code/GPIO1.c ****   (void)DeviceDataPtr;                 /* Parameter is not used, suppress unused argument warning *
 350:../Generated_Code/GPIO1.c ****   switch (Field) {                     /* no break */
 407              		.loc 1 350 0
 408 000c BB68     		ldr	r3, [r7, #8]
 409 000e 002B     		cmp	r3, #0
 410 0010 02D0     		beq	.L23
 411 0012 012B     		cmp	r3, #1
 412 0014 0BD0     		beq	.L24
 413 0016 15E0     		b	.L26
 414              	.L23:
 351:../Generated_Code/GPIO1.c ****     case EnableRightMotor: {           /* bit field #0 */
 352:../Generated_Code/GPIO1.c ****       GPIO_PDD_SetPortDataOutputMask(GPIO1_MODULE_BASE_ADDRESS,
 415              		.loc 1 352 0
 416 0018 4FF28003 		movw	r3, #61568
 417 001c C4F20F03 		movt	r3, 16399
 418 0020 7A68     		ldr	r2, [r7, #4]
 419 0022 4FEA8202 		lsl	r2, r2, #2
 420 0026 02F00402 		and	r2, r2, #4
 421 002a 5A60     		str	r2, [r3, #4]
 353:../Generated_Code/GPIO1.c ****         ((GPIO1_TPortValue)GPIO1_EnableRightMotor_MASK)
 354:../Generated_Code/GPIO1.c ****         & ((GPIO1_TPortValue)(Mask << GPIO1_EnableRightMotor_START_BIT))
 355:../Generated_Code/GPIO1.c ****       );
 356:../Generated_Code/GPIO1.c ****       break;
 422              		.loc 1 356 0
 423 002c 0BE0     		b	.L21
 424              	.L24:
 357:../Generated_Code/GPIO1.c ****     }
 358:../Generated_Code/GPIO1.c ****     case EnableLeftMotor: {            /* bit field #1 */
 359:../Generated_Code/GPIO1.c ****       GPIO_PDD_SetPortDataOutputMask(GPIO1_MODULE_BASE_ADDRESS,
 425              		.loc 1 359 0
 426 002e 4FF28003 		movw	r3, #61568
 427 0032 C4F20F03 		movt	r3, 16399
 428 0036 7A68     		ldr	r2, [r7, #4]
 429 0038 4FEAC202 		lsl	r2, r2, #3
 430 003c 02F00802 		and	r2, r2, #8
 431 0040 5A60     		str	r2, [r3, #4]
 360:../Generated_Code/GPIO1.c ****         ((GPIO1_TPortValue)GPIO1_EnableLeftMotor_MASK)
 361:../Generated_Code/GPIO1.c ****         & ((GPIO1_TPortValue)(Mask << GPIO1_EnableLeftMotor_START_BIT))
 362:../Generated_Code/GPIO1.c ****       );
 363:../Generated_Code/GPIO1.c ****       break;
 432              		.loc 1 363 0
 433 0042 00E0     		b	.L21
 434              	.L26:
 364:../Generated_Code/GPIO1.c ****     }
 365:../Generated_Code/GPIO1.c ****     default:
 366:../Generated_Code/GPIO1.c ****       break;                           /* Invalid Field is not treated, result is undefined */
 435              		.loc 1 366 0
 436 0044 00BF     		nop
 437              	.L21:
 367:../Generated_Code/GPIO1.c ****   } /* switch (Field) */
 368:../Generated_Code/GPIO1.c **** }
 438              		.loc 1 368 0
 439 0046 07F11407 		add	r7, r7, #20
 440 004a BD46     		mov	sp, r7
 441 004c 80BC     		pop	{r7}
 442 004e 7047     		bx	lr
 443              		.cfi_endproc
 444              	.LFE5:
 446              		.section	.text.GPIO1_ToggleFieldBits,"ax",%progbits
 447              		.align	2
 448              		.global	GPIO1_ToggleFieldBits
 449              		.thumb
 450              		.thumb_func
 452              	GPIO1_ToggleFieldBits:
 453              	.LFB6:
 369:../Generated_Code/GPIO1.c **** 
 370:../Generated_Code/GPIO1.c **** /*
 371:../Generated_Code/GPIO1.c **** ** ===================================================================
 372:../Generated_Code/GPIO1.c **** **     Method      :  GPIO1_ToggleFieldBits (component GPIO_LDD)
 373:../Generated_Code/GPIO1.c **** **
 374:../Generated_Code/GPIO1.c **** **     Description :
 375:../Generated_Code/GPIO1.c **** **         This method inverts the specified bits of the specified bit
 376:../Generated_Code/GPIO1.c **** **         field to other level.
 377:../Generated_Code/GPIO1.c **** **     Parameters  :
 378:../Generated_Code/GPIO1.c **** **         NAME            - DESCRIPTION
 379:../Generated_Code/GPIO1.c **** **       * DeviceDataPtr   - Device data structure
 380:../Generated_Code/GPIO1.c **** **                           pointer returned by <Init> method.
 381:../Generated_Code/GPIO1.c **** **         Field           - Bit field to write. Bit fields are
 382:../Generated_Code/GPIO1.c **** **                           defined during design time and for each bit
 383:../Generated_Code/GPIO1.c **** **                           field there is a generated constant.
 384:../Generated_Code/GPIO1.c **** **         Mask            - Aligned mask of bits to inverting the
 385:../Generated_Code/GPIO1.c **** **                           current level. Each field pin has
 386:../Generated_Code/GPIO1.c **** **                           corresponding bit in the mask. Bit value 0
 387:../Generated_Code/GPIO1.c **** **                           means not selected bit, bit value 1 means
 388:../Generated_Code/GPIO1.c **** **                           selected bit. The bit 0 corresponds with
 389:../Generated_Code/GPIO1.c **** **                           the pin which has index 0 within the given
 390:../Generated_Code/GPIO1.c **** **                           bit field, the bit 1 corresponds with the
 391:../Generated_Code/GPIO1.c **** **                           pin which has index 1 within the given bit
 392:../Generated_Code/GPIO1.c **** **                           field, etc.
 393:../Generated_Code/GPIO1.c **** **     Returns     : Nothing
 394:../Generated_Code/GPIO1.c **** ** ===================================================================
 395:../Generated_Code/GPIO1.c **** */
 396:../Generated_Code/GPIO1.c **** void GPIO1_ToggleFieldBits(LDD_TDeviceData *DeviceDataPtr, LDD_GPIO_TBitField Field, GPIO1_TFieldVa
 397:../Generated_Code/GPIO1.c **** {
 454              		.loc 1 397 0
 455              		.cfi_startproc
 456              		@ args = 0, pretend = 0, frame = 16
 457              		@ frame_needed = 1, uses_anonymous_args = 0
 458              		@ link register save eliminated.
 459 0000 80B4     		push	{r7}
 460              	.LCFI18:
 461              		.cfi_def_cfa_offset 4
 462              		.cfi_offset 7, -4
 463 0002 85B0     		sub	sp, sp, #20
 464              	.LCFI19:
 465              		.cfi_def_cfa_offset 24
 466 0004 00AF     		add	r7, sp, #0
 467              	.LCFI20:
 468              		.cfi_def_cfa_register 7
 469 0006 F860     		str	r0, [r7, #12]
 470 0008 B960     		str	r1, [r7, #8]
 471 000a 7A60     		str	r2, [r7, #4]
 398:../Generated_Code/GPIO1.c ****   (void)DeviceDataPtr;                 /* Parameter is not used, suppress unused argument warning *
 399:../Generated_Code/GPIO1.c ****   switch (Field) {                     /* no break */
 472              		.loc 1 399 0
 473 000c BB68     		ldr	r3, [r7, #8]
 474 000e 002B     		cmp	r3, #0
 475 0010 02D0     		beq	.L29
 476 0012 012B     		cmp	r3, #1
 477 0014 0BD0     		beq	.L30
 478 0016 15E0     		b	.L32
 479              	.L29:
 400:../Generated_Code/GPIO1.c ****     case EnableRightMotor: {           /* bit field #0 */
 401:../Generated_Code/GPIO1.c ****       GPIO_PDD_TogglePortDataOutputMask(GPIO1_MODULE_BASE_ADDRESS,
 480              		.loc 1 401 0
 481 0018 4FF28003 		movw	r3, #61568
 482 001c C4F20F03 		movt	r3, 16399
 483 0020 7A68     		ldr	r2, [r7, #4]
 484 0022 4FEA8202 		lsl	r2, r2, #2
 485 0026 02F00402 		and	r2, r2, #4
 486 002a DA60     		str	r2, [r3, #12]
 402:../Generated_Code/GPIO1.c ****         ((GPIO1_TPortValue)GPIO1_EnableRightMotor_MASK)
 403:../Generated_Code/GPIO1.c ****         & ((GPIO1_TPortValue)(Mask << GPIO1_EnableRightMotor_START_BIT))
 404:../Generated_Code/GPIO1.c ****       );
 405:../Generated_Code/GPIO1.c ****       break;
 487              		.loc 1 405 0
 488 002c 0BE0     		b	.L27
 489              	.L30:
 406:../Generated_Code/GPIO1.c ****     }
 407:../Generated_Code/GPIO1.c ****     case EnableLeftMotor: {            /* bit field #1 */
 408:../Generated_Code/GPIO1.c ****       GPIO_PDD_TogglePortDataOutputMask(GPIO1_MODULE_BASE_ADDRESS,
 490              		.loc 1 408 0
 491 002e 4FF28003 		movw	r3, #61568
 492 0032 C4F20F03 		movt	r3, 16399
 493 0036 7A68     		ldr	r2, [r7, #4]
 494 0038 4FEAC202 		lsl	r2, r2, #3
 495 003c 02F00802 		and	r2, r2, #8
 496 0040 DA60     		str	r2, [r3, #12]
 409:../Generated_Code/GPIO1.c ****         ((GPIO1_TPortValue)GPIO1_EnableLeftMotor_MASK)
 410:../Generated_Code/GPIO1.c ****         & ((GPIO1_TPortValue)(Mask << GPIO1_EnableLeftMotor_START_BIT))
 411:../Generated_Code/GPIO1.c ****       );
 412:../Generated_Code/GPIO1.c ****       break;
 497              		.loc 1 412 0
 498 0042 00E0     		b	.L27
 499              	.L32:
 413:../Generated_Code/GPIO1.c ****     }
 414:../Generated_Code/GPIO1.c ****     default:
 415:../Generated_Code/GPIO1.c ****       break;                           /* Invalid Field is not treated, result is undefined */
 500              		.loc 1 415 0
 501 0044 00BF     		nop
 502              	.L27:
 416:../Generated_Code/GPIO1.c ****   } /* switch (Field) */
 417:../Generated_Code/GPIO1.c **** }
 503              		.loc 1 417 0
 504 0046 07F11407 		add	r7, r7, #20
 505 004a BD46     		mov	sp, r7
 506 004c 80BC     		pop	{r7}
 507 004e 7047     		bx	lr
 508              		.cfi_endproc
 509              	.LFE6:
 511              		.section	.text.GPIO1_SetFieldInputDirection,"ax",%progbits
 512              		.align	2
 513              		.global	GPIO1_SetFieldInputDirection
 514              		.thumb
 515              		.thumb_func
 517              	GPIO1_SetFieldInputDirection:
 518              	.LFB7:
 418:../Generated_Code/GPIO1.c **** 
 419:../Generated_Code/GPIO1.c **** /*
 420:../Generated_Code/GPIO1.c **** ** ===================================================================
 421:../Generated_Code/GPIO1.c **** **     Method      :  GPIO1_SetFieldInputDirection (component GPIO_LDD)
 422:../Generated_Code/GPIO1.c **** **
 423:../Generated_Code/GPIO1.c **** **     Description :
 424:../Generated_Code/GPIO1.c **** **         This method sets all pins of the field to the input
 425:../Generated_Code/GPIO1.c **** **         direction.
 426:../Generated_Code/GPIO1.c **** **     Parameters  :
 427:../Generated_Code/GPIO1.c **** **         NAME            - DESCRIPTION
 428:../Generated_Code/GPIO1.c **** **       * DeviceDataPtr   - Device data structure
 429:../Generated_Code/GPIO1.c **** **                           pointer returned by <Init> method.
 430:../Generated_Code/GPIO1.c **** **         Field           - Bit field to write. Bit fields are
 431:../Generated_Code/GPIO1.c **** **                           defined during design time and for each bit
 432:../Generated_Code/GPIO1.c **** **                           field there is a generated constant.
 433:../Generated_Code/GPIO1.c **** **     Returns     : Nothing
 434:../Generated_Code/GPIO1.c **** ** ===================================================================
 435:../Generated_Code/GPIO1.c **** */
 436:../Generated_Code/GPIO1.c **** void GPIO1_SetFieldInputDirection(LDD_TDeviceData *DeviceDataPtr, LDD_GPIO_TBitField Field)
 437:../Generated_Code/GPIO1.c **** {
 519              		.loc 1 437 0
 520              		.cfi_startproc
 521              		@ args = 0, pretend = 0, frame = 8
 522              		@ frame_needed = 1, uses_anonymous_args = 0
 523              		@ link register save eliminated.
 524 0000 80B4     		push	{r7}
 525              	.LCFI21:
 526              		.cfi_def_cfa_offset 4
 527              		.cfi_offset 7, -4
 528 0002 83B0     		sub	sp, sp, #12
 529              	.LCFI22:
 530              		.cfi_def_cfa_offset 16
 531 0004 00AF     		add	r7, sp, #0
 532              	.LCFI23:
 533              		.cfi_def_cfa_register 7
 534 0006 7860     		str	r0, [r7, #4]
 535 0008 3960     		str	r1, [r7, #0]
 438:../Generated_Code/GPIO1.c ****   (void)DeviceDataPtr;                 /* Parameter is not used, suppress unused argument warning *
 439:../Generated_Code/GPIO1.c ****   switch (Field) {                     /* no break */
 536              		.loc 1 439 0
 537 000a 3B68     		ldr	r3, [r7, #0]
 538 000c 002B     		cmp	r3, #0
 539 000e 02D0     		beq	.L35
 540 0010 012B     		cmp	r3, #1
 541 0012 0DD0     		beq	.L36
 542 0014 19E0     		b	.L38
 543              	.L35:
 440:../Generated_Code/GPIO1.c ****     case EnableRightMotor: {           /* bit field #0 */
 441:../Generated_Code/GPIO1.c ****       GPIO_PDD_SetPortInputDirectionMask(GPIO1_MODULE_BASE_ADDRESS,
 544              		.loc 1 441 0
 545 0016 4FF28003 		movw	r3, #61568
 546 001a C4F20F03 		movt	r3, 16399
 547 001e 4FF28002 		movw	r2, #61568
 548 0022 C4F20F02 		movt	r2, 16399
 549 0026 5269     		ldr	r2, [r2, #20]
 550 0028 22F00402 		bic	r2, r2, #4
 551 002c 5A61     		str	r2, [r3, #20]
 442:../Generated_Code/GPIO1.c ****         GPIO1_EnableRightMotor_MASK
 443:../Generated_Code/GPIO1.c ****       );
 444:../Generated_Code/GPIO1.c ****       break;
 552              		.loc 1 444 0
 553 002e 0DE0     		b	.L33
 554              	.L36:
 445:../Generated_Code/GPIO1.c ****     }
 446:../Generated_Code/GPIO1.c ****     case EnableLeftMotor: {            /* bit field #1 */
 447:../Generated_Code/GPIO1.c ****       GPIO_PDD_SetPortInputDirectionMask(GPIO1_MODULE_BASE_ADDRESS,
 555              		.loc 1 447 0
 556 0030 4FF28003 		movw	r3, #61568
 557 0034 C4F20F03 		movt	r3, 16399
 558 0038 4FF28002 		movw	r2, #61568
 559 003c C4F20F02 		movt	r2, 16399
 560 0040 5269     		ldr	r2, [r2, #20]
 561 0042 22F00802 		bic	r2, r2, #8
 562 0046 5A61     		str	r2, [r3, #20]
 448:../Generated_Code/GPIO1.c ****         GPIO1_EnableLeftMotor_MASK
 449:../Generated_Code/GPIO1.c ****       );
 450:../Generated_Code/GPIO1.c ****       break;
 563              		.loc 1 450 0
 564 0048 00E0     		b	.L33
 565              	.L38:
 451:../Generated_Code/GPIO1.c ****     }
 452:../Generated_Code/GPIO1.c ****     default:
 453:../Generated_Code/GPIO1.c ****       break;                           /* Invalid Field is not treated, result is undefined */
 566              		.loc 1 453 0
 567 004a 00BF     		nop
 568              	.L33:
 454:../Generated_Code/GPIO1.c ****   } /* switch (Field) */
 455:../Generated_Code/GPIO1.c **** }
 569              		.loc 1 455 0
 570 004c 07F10C07 		add	r7, r7, #12
 571 0050 BD46     		mov	sp, r7
 572 0052 80BC     		pop	{r7}
 573 0054 7047     		bx	lr
 574              		.cfi_endproc
 575              	.LFE7:
 577 0056 00BF     		.section	.text.GPIO1_SetFieldOutputDirection,"ax",%progbits
 578              		.align	2
 579              		.global	GPIO1_SetFieldOutputDirection
 580              		.thumb
 581              		.thumb_func
 583              	GPIO1_SetFieldOutputDirection:
 584              	.LFB8:
 456:../Generated_Code/GPIO1.c **** 
 457:../Generated_Code/GPIO1.c **** /*
 458:../Generated_Code/GPIO1.c **** ** ===================================================================
 459:../Generated_Code/GPIO1.c **** **     Method      :  GPIO1_SetFieldOutputDirection (component GPIO_LDD)
 460:../Generated_Code/GPIO1.c **** **
 461:../Generated_Code/GPIO1.c **** **     Description :
 462:../Generated_Code/GPIO1.c **** **         This method sets all pins of the field to the output
 463:../Generated_Code/GPIO1.c **** **         direction.
 464:../Generated_Code/GPIO1.c **** **     Parameters  :
 465:../Generated_Code/GPIO1.c **** **         NAME            - DESCRIPTION
 466:../Generated_Code/GPIO1.c **** **       * DeviceDataPtr   - Device data structure
 467:../Generated_Code/GPIO1.c **** **                           pointer returned by <Init> method.
 468:../Generated_Code/GPIO1.c **** **         Field           - Bit field to set to the output
 469:../Generated_Code/GPIO1.c **** **                           direction. Bit fields are defined during
 470:../Generated_Code/GPIO1.c **** **                           design time and for each bit field there is
 471:../Generated_Code/GPIO1.c **** **                           a generated constant.
 472:../Generated_Code/GPIO1.c **** **         Value           - Aligned data value to appear on the
 473:../Generated_Code/GPIO1.c **** **                           bit field pins after they have been
 474:../Generated_Code/GPIO1.c **** **                           switched to the output direction.
 475:../Generated_Code/GPIO1.c **** **     Returns     : Nothing
 476:../Generated_Code/GPIO1.c **** ** ===================================================================
 477:../Generated_Code/GPIO1.c **** */
 478:../Generated_Code/GPIO1.c **** void GPIO1_SetFieldOutputDirection(LDD_TDeviceData *DeviceDataPtr, LDD_GPIO_TBitField Field, GPIO1_
 479:../Generated_Code/GPIO1.c **** {
 585              		.loc 1 479 0
 586              		.cfi_startproc
 587              		@ args = 0, pretend = 0, frame = 16
 588              		@ frame_needed = 1, uses_anonymous_args = 0
 589              		@ link register save eliminated.
 590 0000 80B4     		push	{r7}
 591              	.LCFI24:
 592              		.cfi_def_cfa_offset 4
 593              		.cfi_offset 7, -4
 594 0002 85B0     		sub	sp, sp, #20
 595              	.LCFI25:
 596              		.cfi_def_cfa_offset 24
 597 0004 00AF     		add	r7, sp, #0
 598              	.LCFI26:
 599              		.cfi_def_cfa_register 7
 600 0006 F860     		str	r0, [r7, #12]
 601 0008 B960     		str	r1, [r7, #8]
 602 000a 7A60     		str	r2, [r7, #4]
 480:../Generated_Code/GPIO1.c ****   (void)DeviceDataPtr;                 /* Parameter is not used, suppress unused argument warning *
 481:../Generated_Code/GPIO1.c ****   switch (Field) {                     /* no break */
 603              		.loc 1 481 0
 604 000c BB68     		ldr	r3, [r7, #8]
 605 000e 002B     		cmp	r3, #0
 606 0010 02D0     		beq	.L41
 607 0012 012B     		cmp	r3, #1
 608 0014 1FD0     		beq	.L42
 609 0016 3DE0     		b	.L44
 610              	.L41:
 482:../Generated_Code/GPIO1.c ****     case EnableRightMotor: {           /* bit field #0 */
 483:../Generated_Code/GPIO1.c ****       GPIO_PDD_SetPortDataOutput(GPIO1_MODULE_BASE_ADDRESS,
 611              		.loc 1 483 0
 612 0018 4FF28003 		movw	r3, #61568
 613 001c C4F20F03 		movt	r3, 16399
 614 0020 4FF28002 		movw	r2, #61568
 615 0024 C4F20F02 		movt	r2, 16399
 616 0028 1268     		ldr	r2, [r2, #0]
 617 002a 22F00401 		bic	r1, r2, #4
 618 002e 7A68     		ldr	r2, [r7, #4]
 619 0030 4FEA8202 		lsl	r2, r2, #2
 620 0034 02F00402 		and	r2, r2, #4
 621 0038 0A43     		orrs	r2, r2, r1
 622 003a 1A60     		str	r2, [r3, #0]
 484:../Generated_Code/GPIO1.c ****         ((GPIO1_TPortValue)(
 485:../Generated_Code/GPIO1.c ****           GPIO_PDD_GetPortDataOutput(GPIO1_MODULE_BASE_ADDRESS)
 486:../Generated_Code/GPIO1.c ****           & ((GPIO1_TPortValue)(
 487:../Generated_Code/GPIO1.c ****             ~((GPIO1_TPortValue)GPIO1_EnableRightMotor_MASK)
 488:../Generated_Code/GPIO1.c ****           ))
 489:../Generated_Code/GPIO1.c ****         ))
 490:../Generated_Code/GPIO1.c ****         | (
 491:../Generated_Code/GPIO1.c ****           ((GPIO1_TPortValue)(Value << GPIO1_EnableRightMotor_START_BIT))
 492:../Generated_Code/GPIO1.c ****           & ((GPIO1_TPortValue)GPIO1_EnableRightMotor_MASK)
 493:../Generated_Code/GPIO1.c ****         )
 494:../Generated_Code/GPIO1.c ****       );
 495:../Generated_Code/GPIO1.c ****       GPIO_PDD_SetPortOutputDirectionMask(GPIO1_MODULE_BASE_ADDRESS,
 623              		.loc 1 495 0
 624 003c 4FF28003 		movw	r3, #61568
 625 0040 C4F20F03 		movt	r3, 16399
 626 0044 4FF28002 		movw	r2, #61568
 627 0048 C4F20F02 		movt	r2, 16399
 628 004c 5269     		ldr	r2, [r2, #20]
 629 004e 42F00402 		orr	r2, r2, #4
 630 0052 5A61     		str	r2, [r3, #20]
 496:../Generated_Code/GPIO1.c ****         GPIO1_EnableRightMotor_MASK
 497:../Generated_Code/GPIO1.c ****       );
 498:../Generated_Code/GPIO1.c ****       break;
 631              		.loc 1 498 0
 632 0054 1FE0     		b	.L39
 633              	.L42:
 499:../Generated_Code/GPIO1.c ****     }
 500:../Generated_Code/GPIO1.c ****     case EnableLeftMotor: {            /* bit field #1 */
 501:../Generated_Code/GPIO1.c ****       GPIO_PDD_SetPortDataOutput(GPIO1_MODULE_BASE_ADDRESS,
 634              		.loc 1 501 0
 635 0056 4FF28003 		movw	r3, #61568
 636 005a C4F20F03 		movt	r3, 16399
 637 005e 4FF28002 		movw	r2, #61568
 638 0062 C4F20F02 		movt	r2, 16399
 639 0066 1268     		ldr	r2, [r2, #0]
 640 0068 22F00801 		bic	r1, r2, #8
 641 006c 7A68     		ldr	r2, [r7, #4]
 642 006e 4FEAC202 		lsl	r2, r2, #3
 643 0072 02F00802 		and	r2, r2, #8
 644 0076 0A43     		orrs	r2, r2, r1
 645 0078 1A60     		str	r2, [r3, #0]
 502:../Generated_Code/GPIO1.c ****         ((GPIO1_TPortValue)(
 503:../Generated_Code/GPIO1.c ****           GPIO_PDD_GetPortDataOutput(GPIO1_MODULE_BASE_ADDRESS)
 504:../Generated_Code/GPIO1.c ****           & ((GPIO1_TPortValue)(
 505:../Generated_Code/GPIO1.c ****             ~((GPIO1_TPortValue)GPIO1_EnableLeftMotor_MASK)
 506:../Generated_Code/GPIO1.c ****           ))
 507:../Generated_Code/GPIO1.c ****         ))
 508:../Generated_Code/GPIO1.c ****         | (
 509:../Generated_Code/GPIO1.c ****           ((GPIO1_TPortValue)(Value << GPIO1_EnableLeftMotor_START_BIT))
 510:../Generated_Code/GPIO1.c ****           & ((GPIO1_TPortValue)GPIO1_EnableLeftMotor_MASK)
 511:../Generated_Code/GPIO1.c ****         )
 512:../Generated_Code/GPIO1.c ****       );
 513:../Generated_Code/GPIO1.c ****       GPIO_PDD_SetPortOutputDirectionMask(GPIO1_MODULE_BASE_ADDRESS,
 646              		.loc 1 513 0
 647 007a 4FF28003 		movw	r3, #61568
 648 007e C4F20F03 		movt	r3, 16399
 649 0082 4FF28002 		movw	r2, #61568
 650 0086 C4F20F02 		movt	r2, 16399
 651 008a 5269     		ldr	r2, [r2, #20]
 652 008c 42F00802 		orr	r2, r2, #8
 653 0090 5A61     		str	r2, [r3, #20]
 514:../Generated_Code/GPIO1.c ****         GPIO1_EnableLeftMotor_MASK
 515:../Generated_Code/GPIO1.c ****       );
 516:../Generated_Code/GPIO1.c ****       break;
 654              		.loc 1 516 0
 655 0092 00E0     		b	.L39
 656              	.L44:
 517:../Generated_Code/GPIO1.c ****     }
 518:../Generated_Code/GPIO1.c ****     default:
 519:../Generated_Code/GPIO1.c ****       break;                           /* Invalid Field is not treated, result is undefined */
 657              		.loc 1 519 0
 658 0094 00BF     		nop
 659              	.L39:
 520:../Generated_Code/GPIO1.c ****   } /* switch (Field) */
 521:../Generated_Code/GPIO1.c **** }
 660              		.loc 1 521 0
 661 0096 07F11407 		add	r7, r7, #20
 662 009a BD46     		mov	sp, r7
 663 009c 80BC     		pop	{r7}
 664 009e 7047     		bx	lr
 665              		.cfi_endproc
 666              	.LFE8:
 668              		.section	.text.GPIO1_ConnectPin,"ax",%progbits
 669              		.align	2
 670              		.global	GPIO1_ConnectPin
 671              		.thumb
 672              		.thumb_func
 674              	GPIO1_ConnectPin:
 675              	.LFB9:
 522:../Generated_Code/GPIO1.c **** 
 523:../Generated_Code/GPIO1.c **** /*
 524:../Generated_Code/GPIO1.c **** ** ===================================================================
 525:../Generated_Code/GPIO1.c **** **     Method      :  GPIO1_ConnectPin (component GPIO_LDD)
 526:../Generated_Code/GPIO1.c **** **
 527:../Generated_Code/GPIO1.c **** **     Description :
 528:../Generated_Code/GPIO1.c **** **         This method reconnects the requested pin associated with the
 529:../Generated_Code/GPIO1.c **** **         selected peripheral in this component. This method is only
 530:../Generated_Code/GPIO1.c **** **         available for CPU derivatives and peripherals that support
 531:../Generated_Code/GPIO1.c **** **         the runtime pin sharing with other internal on-chip
 532:../Generated_Code/GPIO1.c **** **         peripherals.
 533:../Generated_Code/GPIO1.c **** **     Parameters  :
 534:../Generated_Code/GPIO1.c **** **         NAME            - DESCRIPTION
 535:../Generated_Code/GPIO1.c **** **       * DeviceDataPtr   - Device data structure
 536:../Generated_Code/GPIO1.c **** **                           pointer returned by <Init> method.
 537:../Generated_Code/GPIO1.c **** **         PinMask         - Mask for the requested pins. The
 538:../Generated_Code/GPIO1.c **** **                           peripheral pins are reconnected according
 539:../Generated_Code/GPIO1.c **** **                           to this mask.
 540:../Generated_Code/GPIO1.c **** **     Returns     :
 541:../Generated_Code/GPIO1.c **** **         ---             - Error code, possible values:
 542:../Generated_Code/GPIO1.c **** **                           ERR_OK - OK
 543:../Generated_Code/GPIO1.c **** **                           ERR_PARAM_MASK - Invalid pin mask
 544:../Generated_Code/GPIO1.c **** ** ===================================================================
 545:../Generated_Code/GPIO1.c **** */
 546:../Generated_Code/GPIO1.c **** LDD_TError GPIO1_ConnectPin(LDD_TDeviceData *DeviceDataPtr, LDD_TPinMask PinMask)
 547:../Generated_Code/GPIO1.c **** {
 676              		.loc 1 547 0
 677              		.cfi_startproc
 678              		@ args = 0, pretend = 0, frame = 8
 679              		@ frame_needed = 1, uses_anonymous_args = 0
 680              		@ link register save eliminated.
 681 0000 80B4     		push	{r7}
 682              	.LCFI27:
 683              		.cfi_def_cfa_offset 4
 684              		.cfi_offset 7, -4
 685 0002 83B0     		sub	sp, sp, #12
 686              	.LCFI28:
 687              		.cfi_def_cfa_offset 16
 688 0004 00AF     		add	r7, sp, #0
 689              	.LCFI29:
 690              		.cfi_def_cfa_register 7
 691 0006 7860     		str	r0, [r7, #4]
 692 0008 3960     		str	r1, [r7, #0]
 548:../Generated_Code/GPIO1.c ****   (void)DeviceDataPtr;                 /* Parameter is not used, suppress unused argument warning *
 549:../Generated_Code/GPIO1.c ****   /* Pin mask test - this test can be disabled by setting the "Ignore range checking"
 550:../Generated_Code/GPIO1.c ****      property to the "yes" value in the "Configuration inspector" */
 551:../Generated_Code/GPIO1.c ****   if ((PinMask & ((LDD_TPinMask)~((LDD_TPinMask)GPIO1_ALLOCATED_PINS_MASK))) != 0U) {
 693              		.loc 1 551 0
 694 000a 3B68     		ldr	r3, [r7, #0]
 695 000c 23F00C03 		bic	r3, r3, #12
 696 0010 002B     		cmp	r3, #0
 697 0012 02D0     		beq	.L46
 552:../Generated_Code/GPIO1.c ****     return ERR_PARAM_MASK;
 698              		.loc 1 552 0
 699 0014 4FF08003 		mov	r3, #128
 700 0018 2BE0     		b	.L47
 701              	.L46:
 553:../Generated_Code/GPIO1.c ****   }
 554:../Generated_Code/GPIO1.c ****   if ((PinMask & LDD_GPIO_PIN_2) != 0U) {
 702              		.loc 1 554 0
 703 001a 3B68     		ldr	r3, [r7, #0]
 704 001c 03F00403 		and	r3, r3, #4
 705 0020 002B     		cmp	r3, #0
 706 0022 0FD0     		beq	.L48
 555:../Generated_Code/GPIO1.c ****     clrSetReg32Bits(PORTC_PCR2, 0x01000600U, 0x0100U); /* MUX=0x01U */
 707              		.loc 1 555 0
 708 0024 4FF43043 		mov	r3, #45056
 709 0028 C4F20403 		movt	r3, 16388
 710 002c 4FF43042 		mov	r2, #45056
 711 0030 C4F20402 		movt	r2, 16388
 712 0034 9268     		ldr	r2, [r2, #8]
 713 0036 22F08072 		bic	r2, r2, #16777216
 714 003a 22F4E062 		bic	r2, r2, #1792
 715 003e 42F48072 		orr	r2, r2, #256
 716 0042 9A60     		str	r2, [r3, #8]
 717              	.L48:
 556:../Generated_Code/GPIO1.c ****   }
 557:../Generated_Code/GPIO1.c ****   if ((PinMask & LDD_GPIO_PIN_3) != 0U) {
 718              		.loc 1 557 0
 719 0044 3B68     		ldr	r3, [r7, #0]
 720 0046 03F00803 		and	r3, r3, #8
 721 004a 002B     		cmp	r3, #0
 722 004c 0FD0     		beq	.L49
 558:../Generated_Code/GPIO1.c ****     clrSetReg32Bits(PORTC_PCR3, 0x01000600U, 0x0100U); /* MUX=0x01U */
 723              		.loc 1 558 0
 724 004e 4FF43043 		mov	r3, #45056
 725 0052 C4F20403 		movt	r3, 16388
 726 0056 4FF43042 		mov	r2, #45056
 727 005a C4F20402 		movt	r2, 16388
 728 005e D268     		ldr	r2, [r2, #12]
 729 0060 22F08072 		bic	r2, r2, #16777216
 730 0064 22F4E062 		bic	r2, r2, #1792
 731 0068 42F48072 		orr	r2, r2, #256
 732 006c DA60     		str	r2, [r3, #12]
 733              	.L49:
 559:../Generated_Code/GPIO1.c ****   }
 560:../Generated_Code/GPIO1.c ****   return ERR_OK;
 734              		.loc 1 560 0
 735 006e 4FF00003 		mov	r3, #0
 736              	.L47:
 561:../Generated_Code/GPIO1.c **** }
 737              		.loc 1 561 0
 738 0072 1846     		mov	r0, r3
 739 0074 07F10C07 		add	r7, r7, #12
 740 0078 BD46     		mov	sp, r7
 741 007a 80BC     		pop	{r7}
 742 007c 7047     		bx	lr
 743              		.cfi_endproc
 744              	.LFE9:
 746 007e 00BF     		.text
 747              	.Letext0:
 748              		.file 2 "C:/Freescale/CW MCU v10.3_121211/MCU/ARM_GCC_Support/ewl/EWL_C/include/cstdint"
 749              		.file 3 "../Generated_Code/IO_Map.h"
 750              		.file 4 "../Generated_Code/PE_LDD.h"
 751              		.file 5 "../Generated_Code/GPIO1.h"