   1              		.syntax unified
   2              		.cpu cortex-m4
   3              		.fpu softvfp
   4              		.eabi_attribute 20, 1
   5              		.eabi_attribute 21, 1
   6              		.eabi_attribute 23, 3
   7              		.eabi_attribute 24, 1
   8              		.eabi_attribute 25, 1
   9              		.eabi_attribute 26, 1
  10              		.eabi_attribute 30, 6
  11              		.eabi_attribute 34, 1
  12              		.eabi_attribute 18, 4
  13              		.thumb
  14              		.file	"SiPin.c"
  15              		.text
  16              	.Ltext0:
  17              		.cfi_sections	.debug_frame
  18              		.section	.bss.DeviceDataPrv__DEFAULT_RTOS_ALLOC,"aw",%nobits
  19              		.align	2
  22              	DeviceDataPrv__DEFAULT_RTOS_ALLOC:
  23 0000 00000000 		.space	4
  24              		.section	.text.SiPin_Init,"ax",%progbits
  25              		.align	2
  26              		.global	SiPin_Init
  27              		.thumb
  28              		.thumb_func
  30              	SiPin_Init:
  31              	.LFB0:
  32              		.file 1 "../Generated_Code/SiPin.c"
   1:../Generated_Code/SiPin.c **** /** ###################################################################
   2:../Generated_Code/SiPin.c **** **     THIS COMPONENT MODULE IS GENERATED BY THE TOOL. DO NOT MODIFY IT.
   3:../Generated_Code/SiPin.c **** **     Filename    : SiPin.c
   4:../Generated_Code/SiPin.c **** **     Project     : ProcessorExpert
   5:../Generated_Code/SiPin.c **** **     Processor   : MK40DX256ZVLQ10
   6:../Generated_Code/SiPin.c **** **     Component   : GPIO_LDD
   7:../Generated_Code/SiPin.c **** **     Version     : Component 01.126, Driver 01.06, CPU db: 3.00.001
   8:../Generated_Code/SiPin.c **** **     Compiler    : GNU C Compiler
   9:../Generated_Code/SiPin.c **** **     Date/Time   : 2013-04-11, 15:40, # CodeGen: 91
  10:../Generated_Code/SiPin.c **** **     Abstract    :
  11:../Generated_Code/SiPin.c **** **         The HAL GPIO component will provide a low level API for unified
  12:../Generated_Code/SiPin.c **** **         access to general purpose digital input/output pins across
  13:../Generated_Code/SiPin.c **** **         various device designs.
  14:../Generated_Code/SiPin.c **** **
  15:../Generated_Code/SiPin.c **** **         RTOS drivers using HAL GPIO API will be simpler and more
  16:../Generated_Code/SiPin.c **** **         portable to various microprocessors.
  17:../Generated_Code/SiPin.c **** **     Settings    :
  18:../Generated_Code/SiPin.c **** **          Component name                                 : SiPin
  19:../Generated_Code/SiPin.c **** **          Port                                           : PTB
  20:../Generated_Code/SiPin.c **** **          Port width                                     : 32 bits
  21:../Generated_Code/SiPin.c **** **          Mask of allocated pins                         : 4
  22:../Generated_Code/SiPin.c **** **          Interrupt service/event                        : Disabled
  23:../Generated_Code/SiPin.c **** **          Bit fields                                     : 1
  24:../Generated_Code/SiPin.c **** **            Bit field                                    : 
  25:../Generated_Code/SiPin.c **** **              Field name                                 : Si
  26:../Generated_Code/SiPin.c **** **              Pins                                       : 1
  27:../Generated_Code/SiPin.c **** **                Pin                                      : 
  28:../Generated_Code/SiPin.c **** **                  Pin                                    : PTB2/I2C0_SCL/UART0_RTS_b/FTM0_FLT3/LC
  29:../Generated_Code/SiPin.c **** **                  Pin signal                             : 
  30:../Generated_Code/SiPin.c **** **                  Initial pin direction                  : Output
  31:../Generated_Code/SiPin.c **** **                    Initial output state                 : 0
  32:../Generated_Code/SiPin.c **** **                  Initial pin event                      : Disabled
  33:../Generated_Code/SiPin.c **** **                  Lock initialization function           : no
  34:../Generated_Code/SiPin.c **** **          Initialization                                 : 
  35:../Generated_Code/SiPin.c **** **            Auto initialization                          : yes
  36:../Generated_Code/SiPin.c **** **            Event mask                                   : 
  37:../Generated_Code/SiPin.c **** **              OnPortEvent                                : Disabled
  38:../Generated_Code/SiPin.c **** **     Contents    :
  39:../Generated_Code/SiPin.c **** **         Init                    - LDD_TDeviceData* SiPin_Init(LDD_TUserData *UserDataPtr);
  40:../Generated_Code/SiPin.c **** **         Deinit                  - void SiPin_Deinit(LDD_TDeviceData *DeviceDataPtr);
  41:../Generated_Code/SiPin.c **** **         SetFieldValue           - void SiPin_SetFieldValue(LDD_TDeviceData *DeviceDataPtr, LDD_G
  42:../Generated_Code/SiPin.c **** **         GetFieldValue           - SiPin_TFieldValue SiPin_GetFieldValue(LDD_TDeviceData *DeviceD
  43:../Generated_Code/SiPin.c **** **         ClearFieldBits          - void SiPin_ClearFieldBits(LDD_TDeviceData *DeviceDataPtr, LDD_
  44:../Generated_Code/SiPin.c **** **         SetFieldBits            - void SiPin_SetFieldBits(LDD_TDeviceData *DeviceDataPtr, LDD_GP
  45:../Generated_Code/SiPin.c **** **         ToggleFieldBits         - void SiPin_ToggleFieldBits(LDD_TDeviceData *DeviceDataPtr, LDD
  46:../Generated_Code/SiPin.c **** **         SetFieldInputDirection  - void SiPin_SetFieldInputDirection(LDD_TDeviceData *DeviceDataP
  47:../Generated_Code/SiPin.c **** **         SetFieldOutputDirection - void SiPin_SetFieldOutputDirection(LDD_TDeviceData *DeviceData
  48:../Generated_Code/SiPin.c **** **         ConnectPin              - LDD_TError SiPin_ConnectPin(LDD_TDeviceData *DeviceDataPtr, LD
  49:../Generated_Code/SiPin.c **** **
  50:../Generated_Code/SiPin.c **** **     Copyright : 1997 - 2012 Freescale, Inc. All Rights Reserved.
  51:../Generated_Code/SiPin.c **** **     
  52:../Generated_Code/SiPin.c **** **     http      : www.freescale.com
  53:../Generated_Code/SiPin.c **** **     mail      : support@freescale.com
  54:../Generated_Code/SiPin.c **** ** ###################################################################*/
  55:../Generated_Code/SiPin.c **** 
  56:../Generated_Code/SiPin.c **** /* MODULE SiPin. */
  57:../Generated_Code/SiPin.c **** 
  58:../Generated_Code/SiPin.c **** #include "SiPin.h"
  59:../Generated_Code/SiPin.c **** /* {Default RTOS Adapter} No RTOS includes */
  60:../Generated_Code/SiPin.c **** #include "IO_Map.h"
  61:../Generated_Code/SiPin.c **** 
  62:../Generated_Code/SiPin.c **** typedef struct {
  63:../Generated_Code/SiPin.c ****   LDD_TUserData *UserData;             /* RTOS device data structure */
  64:../Generated_Code/SiPin.c **** } SiPin_TDeviceData, *SiPin_TDeviceDataPtr; /* Device data structure type */
  65:../Generated_Code/SiPin.c **** /* {Default RTOS Adapter} Static object used for simulation of dynamic driver memory allocation */
  66:../Generated_Code/SiPin.c **** static SiPin_TDeviceData DeviceDataPrv__DEFAULT_RTOS_ALLOC;
  67:../Generated_Code/SiPin.c **** /*
  68:../Generated_Code/SiPin.c **** ** ===================================================================
  69:../Generated_Code/SiPin.c **** **     Method      :  SiPin_Init (component GPIO_LDD)
  70:../Generated_Code/SiPin.c **** **
  71:../Generated_Code/SiPin.c **** **     Description :
  72:../Generated_Code/SiPin.c **** **         This method initializes the associated peripheral(s) and the
  73:../Generated_Code/SiPin.c **** **         component internal variables. The method is called
  74:../Generated_Code/SiPin.c **** **         automatically as a part of the application initialization
  75:../Generated_Code/SiPin.c **** **         code.
  76:../Generated_Code/SiPin.c **** **     Parameters  :
  77:../Generated_Code/SiPin.c **** **         NAME            - DESCRIPTION
  78:../Generated_Code/SiPin.c **** **       * UserDataPtr     - Pointer to the RTOS device
  79:../Generated_Code/SiPin.c **** **                           structure. This pointer will be passed to
  80:../Generated_Code/SiPin.c **** **                           all events as parameter.
  81:../Generated_Code/SiPin.c **** **     Returns     :
  82:../Generated_Code/SiPin.c **** **         ---             - Pointer to the dynamically allocated
  83:../Generated_Code/SiPin.c **** **                           private structure or NULL if there was an
  84:../Generated_Code/SiPin.c **** **                           error.
  85:../Generated_Code/SiPin.c **** ** ===================================================================
  86:../Generated_Code/SiPin.c **** */
  87:../Generated_Code/SiPin.c **** LDD_TDeviceData* SiPin_Init(LDD_TUserData *UserDataPtr)
  88:../Generated_Code/SiPin.c **** {
  33              		.loc 1 88 0
  34              		.cfi_startproc
  35              		@ args = 0, pretend = 0, frame = 16
  36              		@ frame_needed = 1, uses_anonymous_args = 0
  37              		@ link register save eliminated.
  38 0000 80B4     		push	{r7}
  39              	.LCFI0:
  40              		.cfi_def_cfa_offset 4
  41              		.cfi_offset 7, -4
  42 0002 85B0     		sub	sp, sp, #20
  43              	.LCFI1:
  44              		.cfi_def_cfa_offset 24
  45 0004 00AF     		add	r7, sp, #0
  46              	.LCFI2:
  47              		.cfi_def_cfa_register 7
  48 0006 7860     		str	r0, [r7, #4]
  89:../Generated_Code/SiPin.c ****   /* Allocate LDD device structure */
  90:../Generated_Code/SiPin.c ****   SiPin_TDeviceData *DeviceDataPrv;
  91:../Generated_Code/SiPin.c **** 
  92:../Generated_Code/SiPin.c ****   /* {Default RTOS Adapter} Driver memory allocation: Dynamic allocation is simulated by a pointer 
  93:../Generated_Code/SiPin.c ****   DeviceDataPrv = &DeviceDataPrv__DEFAULT_RTOS_ALLOC;
  49              		.loc 1 93 0
  50 0008 40F20003 		movw	r3, #:lower16:DeviceDataPrv__DEFAULT_RTOS_ALLOC
  51 000c C0F20003 		movt	r3, #:upper16:DeviceDataPrv__DEFAULT_RTOS_ALLOC
  52 0010 FB60     		str	r3, [r7, #12]
  94:../Generated_Code/SiPin.c ****   /* Save RTOS Device structure */
  95:../Generated_Code/SiPin.c ****   DeviceDataPrv->UserData = UserDataPtr; /* Store the RTOS device structure */
  53              		.loc 1 95 0
  54 0012 FB68     		ldr	r3, [r7, #12]
  55 0014 7A68     		ldr	r2, [r7, #4]
  56 0016 1A60     		str	r2, [r3, #0]
  96:../Generated_Code/SiPin.c ****   /* GPIOB_PDOR: PDO&=~4 */
  97:../Generated_Code/SiPin.c ****   GPIOB_PDOR &= (uint32_t)~(uint32_t)(GPIO_PDOR_PDO(0x04));                                        
  57              		.loc 1 97 0
  58 0018 4FF24003 		movw	r3, #61504
  59 001c C4F20F03 		movt	r3, 16399
  60 0020 4FF24002 		movw	r2, #61504
  61 0024 C4F20F02 		movt	r2, 16399
  62 0028 1268     		ldr	r2, [r2, #0]
  63 002a 22F00402 		bic	r2, r2, #4
  64 002e 1A60     		str	r2, [r3, #0]
  98:../Generated_Code/SiPin.c ****   /* GPIOB_PDDR: PDD|=4 */
  99:../Generated_Code/SiPin.c ****   GPIOB_PDDR |= GPIO_PDDR_PDD(0x04);                                                   
  65              		.loc 1 99 0
  66 0030 4FF24003 		movw	r3, #61504
  67 0034 C4F20F03 		movt	r3, 16399
  68 0038 4FF24002 		movw	r2, #61504
  69 003c C4F20F02 		movt	r2, 16399
  70 0040 5269     		ldr	r2, [r2, #20]
  71 0042 42F00402 		orr	r2, r2, #4
  72 0046 5A61     		str	r2, [r3, #20]
 100:../Generated_Code/SiPin.c ****   /* Initialization of Port Control registers */
 101:../Generated_Code/SiPin.c ****   /* PORTB_PCR2: ISF=0,LK=0,MUX=1 */
 102:../Generated_Code/SiPin.c ****   PORTB_PCR2 = (uint32_t)((PORTB_PCR2 & (uint32_t)~(uint32_t)(
  73              		.loc 1 102 0
  74 0048 4FF42042 		mov	r2, #40960
  75 004c C4F20402 		movt	r2, 16388
  76 0050 4FF42043 		mov	r3, #40960
  77 0054 C4F20403 		movt	r3, 16388
  78 0058 9B68     		ldr	r3, [r3, #8]
  79 005a 1946     		mov	r1, r3
  80 005c 47F6FF03 		movw	r3, #30975
  81 0060 CFF6FF63 		movt	r3, 65279
  82 0064 0B40     		ands	r3, r3, r1
  83 0066 43F48073 		orr	r3, r3, #256
  84 006a 9360     		str	r3, [r2, #8]
 103:../Generated_Code/SiPin.c ****                 PORT_PCR_ISF_MASK |
 104:../Generated_Code/SiPin.c ****                 PORT_PCR_LK_MASK |
 105:../Generated_Code/SiPin.c ****                 PORT_PCR_MUX(0x06)
 106:../Generated_Code/SiPin.c ****                )) | (uint32_t)(
 107:../Generated_Code/SiPin.c ****                 PORT_PCR_MUX(0x01)
 108:../Generated_Code/SiPin.c ****                ));                                                  
 109:../Generated_Code/SiPin.c ****   /* Registration of the device structure */
 110:../Generated_Code/SiPin.c ****   PE_LDD_RegisterDeviceStructure(PE_LDD_COMPONENT_SiPin_ID,DeviceDataPrv);
  85              		.loc 1 110 0
  86 006c 40F20003 		movw	r3, #:lower16:PE_LDD_DeviceDataList
  87 0070 C0F20003 		movt	r3, #:upper16:PE_LDD_DeviceDataList
  88 0074 FA68     		ldr	r2, [r7, #12]
  89 0076 5A63     		str	r2, [r3, #52]
 111:../Generated_Code/SiPin.c ****   return ((LDD_TDeviceData *)DeviceDataPrv);
  90              		.loc 1 111 0
  91 0078 FB68     		ldr	r3, [r7, #12]
 112:../Generated_Code/SiPin.c **** }
  92              		.loc 1 112 0
  93 007a 1846     		mov	r0, r3
  94 007c 07F11407 		add	r7, r7, #20
  95 0080 BD46     		mov	sp, r7
  96 0082 80BC     		pop	{r7}
  97 0084 7047     		bx	lr
  98              		.cfi_endproc
  99              	.LFE0:
 101 0086 00BF     		.section	.text.SiPin_Deinit,"ax",%progbits
 102              		.align	2
 103              		.global	SiPin_Deinit
 104              		.thumb
 105              		.thumb_func
 107              	SiPin_Deinit:
 108              	.LFB1:
 113:../Generated_Code/SiPin.c **** 
 114:../Generated_Code/SiPin.c **** /*
 115:../Generated_Code/SiPin.c **** ** ===================================================================
 116:../Generated_Code/SiPin.c **** **     Method      :  SiPin_Deinit (component GPIO_LDD)
 117:../Generated_Code/SiPin.c **** **
 118:../Generated_Code/SiPin.c **** **     Description :
 119:../Generated_Code/SiPin.c **** **         This method disables the device and frees the device data
 120:../Generated_Code/SiPin.c **** **         structure memory.
 121:../Generated_Code/SiPin.c **** **     Parameters  :
 122:../Generated_Code/SiPin.c **** **         NAME            - DESCRIPTION
 123:../Generated_Code/SiPin.c **** **       * DeviceDataPtr   - Pointer to device data
 124:../Generated_Code/SiPin.c **** **                           structure pointer.
 125:../Generated_Code/SiPin.c **** **     Returns     : Nothing
 126:../Generated_Code/SiPin.c **** ** ===================================================================
 127:../Generated_Code/SiPin.c **** */
 128:../Generated_Code/SiPin.c **** void SiPin_Deinit(LDD_TDeviceData *DeviceDataPtr)
 129:../Generated_Code/SiPin.c **** {
 109              		.loc 1 129 0
 110              		.cfi_startproc
 111              		@ args = 0, pretend = 0, frame = 8
 112              		@ frame_needed = 1, uses_anonymous_args = 0
 113              		@ link register save eliminated.
 114 0000 80B4     		push	{r7}
 115              	.LCFI3:
 116              		.cfi_def_cfa_offset 4
 117              		.cfi_offset 7, -4
 118 0002 83B0     		sub	sp, sp, #12
 119              	.LCFI4:
 120              		.cfi_def_cfa_offset 16
 121 0004 00AF     		add	r7, sp, #0
 122              	.LCFI5:
 123              		.cfi_def_cfa_register 7
 124 0006 7860     		str	r0, [r7, #4]
 130:../Generated_Code/SiPin.c ****   (void)DeviceDataPtr;                 /* Parameter is not used, suppress unused argument warning *
 131:../Generated_Code/SiPin.c ****   /* PORTB_PCR2: IRQC=0 */
 132:../Generated_Code/SiPin.c ****   PORTB_PCR2 &= (uint32_t)~(uint32_t)(PORT_PCR_IRQC(0x0F));                                        
 125              		.loc 1 132 0
 126 0008 4FF42043 		mov	r3, #40960
 127 000c C4F20403 		movt	r3, 16388
 128 0010 4FF42042 		mov	r2, #40960
 129 0014 C4F20402 		movt	r2, 16388
 130 0018 9268     		ldr	r2, [r2, #8]
 131 001a 22F47022 		bic	r2, r2, #983040
 132 001e 9A60     		str	r2, [r3, #8]
 133:../Generated_Code/SiPin.c ****   /* GPIOB_PDDR: PDD&=~4 */
 134:../Generated_Code/SiPin.c ****   GPIOB_PDDR &= (uint32_t)~(uint32_t)(GPIO_PDDR_PDD(0x04));                                        
 133              		.loc 1 134 0
 134 0020 4FF24003 		movw	r3, #61504
 135 0024 C4F20F03 		movt	r3, 16399
 136 0028 4FF24002 		movw	r2, #61504
 137 002c C4F20F02 		movt	r2, 16399
 138 0030 5269     		ldr	r2, [r2, #20]
 139 0032 22F00402 		bic	r2, r2, #4
 140 0036 5A61     		str	r2, [r3, #20]
 135:../Generated_Code/SiPin.c ****   /* Unregistration of the device structure */
 136:../Generated_Code/SiPin.c ****   PE_LDD_UnregisterDeviceStructure(PE_LDD_COMPONENT_SiPin_ID);
 141              		.loc 1 136 0
 142 0038 40F20003 		movw	r3, #:lower16:PE_LDD_DeviceDataList
 143 003c C0F20003 		movt	r3, #:upper16:PE_LDD_DeviceDataList
 144 0040 4FF00002 		mov	r2, #0
 145 0044 5A63     		str	r2, [r3, #52]
 137:../Generated_Code/SiPin.c ****   /* Deallocation of the device structure */
 138:../Generated_Code/SiPin.c ****   /* {Default RTOS Adapter} Driver memory deallocation: Dynamic allocation is simulated, no dealloc
 139:../Generated_Code/SiPin.c **** }
 146              		.loc 1 139 0
 147 0046 07F10C07 		add	r7, r7, #12
 148 004a BD46     		mov	sp, r7
 149 004c 80BC     		pop	{r7}
 150 004e 7047     		bx	lr
 151              		.cfi_endproc
 152              	.LFE1:
 154              		.section	.text.SiPin_SetFieldValue,"ax",%progbits
 155              		.align	2
 156              		.global	SiPin_SetFieldValue
 157              		.thumb
 158              		.thumb_func
 160              	SiPin_SetFieldValue:
 161              	.LFB2:
 140:../Generated_Code/SiPin.c **** 
 141:../Generated_Code/SiPin.c **** /*
 142:../Generated_Code/SiPin.c **** ** ===================================================================
 143:../Generated_Code/SiPin.c **** **     Method      :  SiPin_SetFieldValue (component GPIO_LDD)
 144:../Generated_Code/SiPin.c **** **
 145:../Generated_Code/SiPin.c **** **     Description :
 146:../Generated_Code/SiPin.c **** **         This method sets the output data value of the specified bit
 147:../Generated_Code/SiPin.c **** **         field.
 148:../Generated_Code/SiPin.c **** **     Parameters  :
 149:../Generated_Code/SiPin.c **** **         NAME            - DESCRIPTION
 150:../Generated_Code/SiPin.c **** **       * DeviceDataPtr   - Device data structure
 151:../Generated_Code/SiPin.c **** **                           pointer returned by <Init> method.
 152:../Generated_Code/SiPin.c **** **         Field           - Bit field to write. Bit fields are
 153:../Generated_Code/SiPin.c **** **                           defined during design time and for each bit
 154:../Generated_Code/SiPin.c **** **                           field there is a generated constant.
 155:../Generated_Code/SiPin.c **** **         Value           - Aligned data value to writting to the
 156:../Generated_Code/SiPin.c **** **                           specified bit field. The bit 0 corresponds
 157:../Generated_Code/SiPin.c **** **                           with the pin which has index 0 within the
 158:../Generated_Code/SiPin.c **** **                           given bit field, the bit 1 corresponds with
 159:../Generated_Code/SiPin.c **** **                           the pin which has index 1 within the given
 160:../Generated_Code/SiPin.c **** **                           bit field, etc.
 161:../Generated_Code/SiPin.c **** **     Returns     : Nothing
 162:../Generated_Code/SiPin.c **** ** ===================================================================
 163:../Generated_Code/SiPin.c **** */
 164:../Generated_Code/SiPin.c **** void SiPin_SetFieldValue(LDD_TDeviceData *DeviceDataPtr, LDD_GPIO_TBitField Field, SiPin_TFieldValu
 165:../Generated_Code/SiPin.c **** {
 162              		.loc 1 165 0
 163              		.cfi_startproc
 164              		@ args = 0, pretend = 0, frame = 16
 165              		@ frame_needed = 1, uses_anonymous_args = 0
 166              		@ link register save eliminated.
 167 0000 80B4     		push	{r7}
 168              	.LCFI6:
 169              		.cfi_def_cfa_offset 4
 170              		.cfi_offset 7, -4
 171 0002 85B0     		sub	sp, sp, #20
 172              	.LCFI7:
 173              		.cfi_def_cfa_offset 24
 174 0004 00AF     		add	r7, sp, #0
 175              	.LCFI8:
 176              		.cfi_def_cfa_register 7
 177 0006 F860     		str	r0, [r7, #12]
 178 0008 B960     		str	r1, [r7, #8]
 179 000a 7A60     		str	r2, [r7, #4]
 166:../Generated_Code/SiPin.c ****   (void)DeviceDataPtr;                 /* Parameter is not used, suppress unused argument warning *
 167:../Generated_Code/SiPin.c ****   switch (Field) {                     /* no break */
 180              		.loc 1 167 0
 181 000c BB68     		ldr	r3, [r7, #8]
 182 000e 002B     		cmp	r3, #0
 183 0010 12D1     		bne	.L7
 184              	.L5:
 168:../Generated_Code/SiPin.c ****     case Si: {                         /* bit field #0 */
 169:../Generated_Code/SiPin.c ****       GPIO_PDD_SetPortDataOutput(SiPin_MODULE_BASE_ADDRESS,
 185              		.loc 1 169 0
 186 0012 4FF24003 		movw	r3, #61504
 187 0016 C4F20F03 		movt	r3, 16399
 188 001a 4FF24002 		movw	r2, #61504
 189 001e C4F20F02 		movt	r2, 16399
 190 0022 1268     		ldr	r2, [r2, #0]
 191 0024 22F00401 		bic	r1, r2, #4
 192 0028 7A68     		ldr	r2, [r7, #4]
 193 002a 4FEA8202 		lsl	r2, r2, #2
 194 002e 02F00402 		and	r2, r2, #4
 195 0032 0A43     		orrs	r2, r2, r1
 196 0034 1A60     		str	r2, [r3, #0]
 170:../Generated_Code/SiPin.c ****         (
 171:../Generated_Code/SiPin.c ****           GPIO_PDD_GetPortDataOutput(SiPin_MODULE_BASE_ADDRESS)
 172:../Generated_Code/SiPin.c ****           & ((SiPin_TPortValue)(~((SiPin_TPortValue)SiPin_Si_MASK)))
 173:../Generated_Code/SiPin.c ****         )
 174:../Generated_Code/SiPin.c ****         | (
 175:../Generated_Code/SiPin.c ****           ((SiPin_TPortValue)(Value << SiPin_Si_START_BIT))
 176:../Generated_Code/SiPin.c ****           & ((SiPin_TPortValue)SiPin_Si_MASK)
 177:../Generated_Code/SiPin.c ****         )
 178:../Generated_Code/SiPin.c ****       );
 179:../Generated_Code/SiPin.c ****       break;
 197              		.loc 1 179 0
 198 0036 00E0     		b	.L3
 199              	.L7:
 180:../Generated_Code/SiPin.c ****     }
 181:../Generated_Code/SiPin.c ****     default:
 182:../Generated_Code/SiPin.c ****       break;                           /* Invalid Field is not treated, result is undefined */
 200              		.loc 1 182 0
 201 0038 00BF     		nop
 202              	.L3:
 183:../Generated_Code/SiPin.c ****   } /* switch (Field) */
 184:../Generated_Code/SiPin.c **** }
 203              		.loc 1 184 0
 204 003a 07F11407 		add	r7, r7, #20
 205 003e BD46     		mov	sp, r7
 206 0040 80BC     		pop	{r7}
 207 0042 7047     		bx	lr
 208              		.cfi_endproc
 209              	.LFE2:
 211              		.section	.text.SiPin_GetFieldValue,"ax",%progbits
 212              		.align	2
 213              		.global	SiPin_GetFieldValue
 214              		.thumb
 215              		.thumb_func
 217              	SiPin_GetFieldValue:
 218              	.LFB3:
 185:../Generated_Code/SiPin.c **** 
 186:../Generated_Code/SiPin.c **** /*
 187:../Generated_Code/SiPin.c **** ** ===================================================================
 188:../Generated_Code/SiPin.c **** **     Method      :  SiPin_GetFieldValue (component GPIO_LDD)
 189:../Generated_Code/SiPin.c **** **
 190:../Generated_Code/SiPin.c **** **     Description :
 191:../Generated_Code/SiPin.c **** **         This method returns the current input data of the specified
 192:../Generated_Code/SiPin.c **** **         field.
 193:../Generated_Code/SiPin.c **** **     Parameters  :
 194:../Generated_Code/SiPin.c **** **         NAME            - DESCRIPTION
 195:../Generated_Code/SiPin.c **** **       * DeviceDataPtr   - Device data structure
 196:../Generated_Code/SiPin.c **** **                           pointer returned by <Init> method.
 197:../Generated_Code/SiPin.c **** **         Field           - Bit field to reading. Bit fields are
 198:../Generated_Code/SiPin.c **** **                           defined during design time and for each bit
 199:../Generated_Code/SiPin.c **** **                           field there is a generated constant.
 200:../Generated_Code/SiPin.c **** **     Returns     :
 201:../Generated_Code/SiPin.c **** **         ---             - Aligned current port input value masked
 202:../Generated_Code/SiPin.c **** **                           for allocated pins of the field. The bit 0
 203:../Generated_Code/SiPin.c **** **                           corresponds with the pin which has index 0
 204:../Generated_Code/SiPin.c **** **                           within the given bit field, the bit 1
 205:../Generated_Code/SiPin.c **** **                           corresponds with the pin which has index 1
 206:../Generated_Code/SiPin.c **** **                           within the given bit field, etc.
 207:../Generated_Code/SiPin.c **** ** ===================================================================
 208:../Generated_Code/SiPin.c **** */
 209:../Generated_Code/SiPin.c **** SiPin_TFieldValue SiPin_GetFieldValue(LDD_TDeviceData *DeviceDataPtr, LDD_GPIO_TBitField Field)
 210:../Generated_Code/SiPin.c **** {
 219              		.loc 1 210 0
 220              		.cfi_startproc
 221              		@ args = 0, pretend = 0, frame = 8
 222              		@ frame_needed = 1, uses_anonymous_args = 0
 223              		@ link register save eliminated.
 224 0000 80B4     		push	{r7}
 225              	.LCFI9:
 226              		.cfi_def_cfa_offset 4
 227              		.cfi_offset 7, -4
 228 0002 83B0     		sub	sp, sp, #12
 229              	.LCFI10:
 230              		.cfi_def_cfa_offset 16
 231 0004 00AF     		add	r7, sp, #0
 232              	.LCFI11:
 233              		.cfi_def_cfa_register 7
 234 0006 7860     		str	r0, [r7, #4]
 235 0008 3960     		str	r1, [r7, #0]
 211:../Generated_Code/SiPin.c ****   (void)DeviceDataPtr;                 /* Parameter is not used, suppress unused argument warning *
 212:../Generated_Code/SiPin.c ****   switch (Field) {                     /* no break */
 236              		.loc 1 212 0
 237 000a 3B68     		ldr	r3, [r7, #0]
 238 000c 002B     		cmp	r3, #0
 239 000e 09D1     		bne	.L12
 240              	.L10:
 213:../Generated_Code/SiPin.c ****     case Si: {                         /* bit field #0 */
 214:../Generated_Code/SiPin.c ****       return
 215:../Generated_Code/SiPin.c ****         (SiPin_TFieldValue)(
 216:../Generated_Code/SiPin.c ****           (
 217:../Generated_Code/SiPin.c ****             GPIO_PDD_GetPortDataInput(SiPin_MODULE_BASE_ADDRESS)
 241              		.loc 1 217 0
 242 0010 4FF24003 		movw	r3, #61504
 243 0014 C4F20F03 		movt	r3, 16399
 244 0018 1B69     		ldr	r3, [r3, #16]
 218:../Generated_Code/SiPin.c ****             & (SiPin_TPortValue)SiPin_Si_MASK
 245              		.loc 1 218 0
 246 001a 03F00403 		and	r3, r3, #4
 214:../Generated_Code/SiPin.c ****       return
 247              		.loc 1 214 0
 248 001e 4FEA9303 		lsr	r3, r3, #2
 249 0022 02E0     		b	.L11
 250              	.L12:
 219:../Generated_Code/SiPin.c ****           )
 220:../Generated_Code/SiPin.c ****           >> SiPin_Si_START_BIT
 221:../Generated_Code/SiPin.c ****         );
 222:../Generated_Code/SiPin.c ****     }
 223:../Generated_Code/SiPin.c ****     default:
 224:../Generated_Code/SiPin.c ****       break;                           /* Invalid BitField is not treated, result is undefined */
 251              		.loc 1 224 0
 252 0024 00BF     		nop
 225:../Generated_Code/SiPin.c ****   } /* switch (Field) */
 226:../Generated_Code/SiPin.c ****   return (SiPin_TFieldValue)0U;
 253              		.loc 1 226 0
 254 0026 4FF00003 		mov	r3, #0
 255              	.L11:
 227:../Generated_Code/SiPin.c **** }
 256              		.loc 1 227 0
 257 002a 1846     		mov	r0, r3
 258 002c 07F10C07 		add	r7, r7, #12
 259 0030 BD46     		mov	sp, r7
 260 0032 80BC     		pop	{r7}
 261 0034 7047     		bx	lr
 262              		.cfi_endproc
 263              	.LFE3:
 265 0036 00BF     		.section	.text.SiPin_ClearFieldBits,"ax",%progbits
 266              		.align	2
 267              		.global	SiPin_ClearFieldBits
 268              		.thumb
 269              		.thumb_func
 271              	SiPin_ClearFieldBits:
 272              	.LFB4:
 228:../Generated_Code/SiPin.c **** 
 229:../Generated_Code/SiPin.c **** /*
 230:../Generated_Code/SiPin.c **** ** ===================================================================
 231:../Generated_Code/SiPin.c **** **     Method      :  SiPin_ClearFieldBits (component GPIO_LDD)
 232:../Generated_Code/SiPin.c **** **
 233:../Generated_Code/SiPin.c **** **     Description :
 234:../Generated_Code/SiPin.c **** **         This method drives the specified bits of the specified bit
 235:../Generated_Code/SiPin.c **** **         field to the inactive level.
 236:../Generated_Code/SiPin.c **** **     Parameters  :
 237:../Generated_Code/SiPin.c **** **         NAME            - DESCRIPTION
 238:../Generated_Code/SiPin.c **** **       * DeviceDataPtr   - Device data structure
 239:../Generated_Code/SiPin.c **** **                           pointer returned by <Init> method.
 240:../Generated_Code/SiPin.c **** **         Field           - Bit field to write. Bit fields are
 241:../Generated_Code/SiPin.c **** **                           defined during design time and for each bit
 242:../Generated_Code/SiPin.c **** **                           field there is a generated constant.
 243:../Generated_Code/SiPin.c **** **         Mask            - Aligned mask of bits to setting the
 244:../Generated_Code/SiPin.c **** **                           inactive level. Each field pin has
 245:../Generated_Code/SiPin.c **** **                           corresponding bit in the mask. Bit value 0
 246:../Generated_Code/SiPin.c **** **                           means not selected bit, bit value 1 means
 247:../Generated_Code/SiPin.c **** **                           selected bit. The bit 0 corresponds with
 248:../Generated_Code/SiPin.c **** **                           the pin which has index 0 within the given
 249:../Generated_Code/SiPin.c **** **                           bit field, the bit 1 corresponds with the
 250:../Generated_Code/SiPin.c **** **                           pin which has index 1 within the given bit
 251:../Generated_Code/SiPin.c **** **                           field, etc.
 252:../Generated_Code/SiPin.c **** **     Returns     : Nothing
 253:../Generated_Code/SiPin.c **** ** ===================================================================
 254:../Generated_Code/SiPin.c **** */
 255:../Generated_Code/SiPin.c **** void SiPin_ClearFieldBits(LDD_TDeviceData *DeviceDataPtr, LDD_GPIO_TBitField Field, SiPin_TFieldVal
 256:../Generated_Code/SiPin.c **** {
 273              		.loc 1 256 0
 274              		.cfi_startproc
 275              		@ args = 0, pretend = 0, frame = 16
 276              		@ frame_needed = 1, uses_anonymous_args = 0
 277              		@ link register save eliminated.
 278 0000 80B4     		push	{r7}
 279              	.LCFI12:
 280              		.cfi_def_cfa_offset 4
 281              		.cfi_offset 7, -4
 282 0002 85B0     		sub	sp, sp, #20
 283              	.LCFI13:
 284              		.cfi_def_cfa_offset 24
 285 0004 00AF     		add	r7, sp, #0
 286              	.LCFI14:
 287              		.cfi_def_cfa_register 7
 288 0006 F860     		str	r0, [r7, #12]
 289 0008 B960     		str	r1, [r7, #8]
 290 000a 7A60     		str	r2, [r7, #4]
 257:../Generated_Code/SiPin.c ****   (void)DeviceDataPtr;                 /* Parameter is not used, suppress unused argument warning *
 258:../Generated_Code/SiPin.c ****   switch (Field) {                     /* no break */
 291              		.loc 1 258 0
 292 000c BB68     		ldr	r3, [r7, #8]
 293 000e 002B     		cmp	r3, #0
 294 0010 0AD1     		bne	.L17
 295              	.L15:
 259:../Generated_Code/SiPin.c ****     case Si: {                         /* bit field #0 */
 260:../Generated_Code/SiPin.c ****       GPIO_PDD_ClearPortDataOutputMask(SiPin_MODULE_BASE_ADDRESS,
 296              		.loc 1 260 0
 297 0012 4FF24003 		movw	r3, #61504
 298 0016 C4F20F03 		movt	r3, 16399
 299 001a 7A68     		ldr	r2, [r7, #4]
 300 001c 4FEA8202 		lsl	r2, r2, #2
 301 0020 02F00402 		and	r2, r2, #4
 302 0024 9A60     		str	r2, [r3, #8]
 261:../Generated_Code/SiPin.c ****         ((SiPin_TPortValue)SiPin_Si_MASK)
 262:../Generated_Code/SiPin.c ****         & ((SiPin_TPortValue)(Mask << SiPin_Si_START_BIT))
 263:../Generated_Code/SiPin.c ****       );
 264:../Generated_Code/SiPin.c ****       break;
 303              		.loc 1 264 0
 304 0026 00E0     		b	.L13
 305              	.L17:
 265:../Generated_Code/SiPin.c ****     }
 266:../Generated_Code/SiPin.c ****     default:
 267:../Generated_Code/SiPin.c ****       break;                           /* Invalid Field is not treated, result is undefined */
 306              		.loc 1 267 0
 307 0028 00BF     		nop
 308              	.L13:
 268:../Generated_Code/SiPin.c ****   } /* switch (Field) */
 269:../Generated_Code/SiPin.c **** }
 309              		.loc 1 269 0
 310 002a 07F11407 		add	r7, r7, #20
 311 002e BD46     		mov	sp, r7
 312 0030 80BC     		pop	{r7}
 313 0032 7047     		bx	lr
 314              		.cfi_endproc
 315              	.LFE4:
 317              		.section	.text.SiPin_SetFieldBits,"ax",%progbits
 318              		.align	2
 319              		.global	SiPin_SetFieldBits
 320              		.thumb
 321              		.thumb_func
 323              	SiPin_SetFieldBits:
 324              	.LFB5:
 270:../Generated_Code/SiPin.c **** 
 271:../Generated_Code/SiPin.c **** /*
 272:../Generated_Code/SiPin.c **** ** ===================================================================
 273:../Generated_Code/SiPin.c **** **     Method      :  SiPin_SetFieldBits (component GPIO_LDD)
 274:../Generated_Code/SiPin.c **** **
 275:../Generated_Code/SiPin.c **** **     Description :
 276:../Generated_Code/SiPin.c **** **         This method drives the specified bits of the specified bit
 277:../Generated_Code/SiPin.c **** **         field to the active level.
 278:../Generated_Code/SiPin.c **** **     Parameters  :
 279:../Generated_Code/SiPin.c **** **         NAME            - DESCRIPTION
 280:../Generated_Code/SiPin.c **** **       * DeviceDataPtr   - Device data structure
 281:../Generated_Code/SiPin.c **** **                           pointer returned by <Init> method.
 282:../Generated_Code/SiPin.c **** **         Field           - Bit field to write. Bit fields are
 283:../Generated_Code/SiPin.c **** **                           defined during design time and for each bit
 284:../Generated_Code/SiPin.c **** **                           field there is a generated constant.
 285:../Generated_Code/SiPin.c **** **         Mask            - Aligned mask of bits to setting the
 286:../Generated_Code/SiPin.c **** **                           active level. Each field pin has
 287:../Generated_Code/SiPin.c **** **                           corresponding bit in the mask. Bit value 0
 288:../Generated_Code/SiPin.c **** **                           means not selected bit, bit value 1 means
 289:../Generated_Code/SiPin.c **** **                           selected bit. The bit 0 corresponds with
 290:../Generated_Code/SiPin.c **** **                           the pin which has index 0 within the given
 291:../Generated_Code/SiPin.c **** **                           bit field, the bit 1 corresponds with the
 292:../Generated_Code/SiPin.c **** **                           pin which has index 1 within the given bit
 293:../Generated_Code/SiPin.c **** **                           field, etc.
 294:../Generated_Code/SiPin.c **** **     Returns     : Nothing
 295:../Generated_Code/SiPin.c **** ** ===================================================================
 296:../Generated_Code/SiPin.c **** */
 297:../Generated_Code/SiPin.c **** void SiPin_SetFieldBits(LDD_TDeviceData *DeviceDataPtr, LDD_GPIO_TBitField Field, SiPin_TFieldValue
 298:../Generated_Code/SiPin.c **** {
 325              		.loc 1 298 0
 326              		.cfi_startproc
 327              		@ args = 0, pretend = 0, frame = 16
 328              		@ frame_needed = 1, uses_anonymous_args = 0
 329              		@ link register save eliminated.
 330 0000 80B4     		push	{r7}
 331              	.LCFI15:
 332              		.cfi_def_cfa_offset 4
 333              		.cfi_offset 7, -4
 334 0002 85B0     		sub	sp, sp, #20
 335              	.LCFI16:
 336              		.cfi_def_cfa_offset 24
 337 0004 00AF     		add	r7, sp, #0
 338              	.LCFI17:
 339              		.cfi_def_cfa_register 7
 340 0006 F860     		str	r0, [r7, #12]
 341 0008 B960     		str	r1, [r7, #8]
 342 000a 7A60     		str	r2, [r7, #4]
 299:../Generated_Code/SiPin.c ****   (void)DeviceDataPtr;                 /* Parameter is not used, suppress unused argument warning *
 300:../Generated_Code/SiPin.c ****   switch (Field) {                     /* no break */
 343              		.loc 1 300 0
 344 000c BB68     		ldr	r3, [r7, #8]
 345 000e 002B     		cmp	r3, #0
 346 0010 0AD1     		bne	.L22
 347              	.L20:
 301:../Generated_Code/SiPin.c ****     case Si: {                         /* bit field #0 */
 302:../Generated_Code/SiPin.c ****       GPIO_PDD_SetPortDataOutputMask(SiPin_MODULE_BASE_ADDRESS,
 348              		.loc 1 302 0
 349 0012 4FF24003 		movw	r3, #61504
 350 0016 C4F20F03 		movt	r3, 16399
 351 001a 7A68     		ldr	r2, [r7, #4]
 352 001c 4FEA8202 		lsl	r2, r2, #2
 353 0020 02F00402 		and	r2, r2, #4
 354 0024 5A60     		str	r2, [r3, #4]
 303:../Generated_Code/SiPin.c ****         ((SiPin_TPortValue)SiPin_Si_MASK)
 304:../Generated_Code/SiPin.c ****         & ((SiPin_TPortValue)(Mask << SiPin_Si_START_BIT))
 305:../Generated_Code/SiPin.c ****       );
 306:../Generated_Code/SiPin.c ****       break;
 355              		.loc 1 306 0
 356 0026 00E0     		b	.L18
 357              	.L22:
 307:../Generated_Code/SiPin.c ****     }
 308:../Generated_Code/SiPin.c ****     default:
 309:../Generated_Code/SiPin.c ****       break;                           /* Invalid Field is not treated, result is undefined */
 358              		.loc 1 309 0
 359 0028 00BF     		nop
 360              	.L18:
 310:../Generated_Code/SiPin.c ****   } /* switch (Field) */
 311:../Generated_Code/SiPin.c **** }
 361              		.loc 1 311 0
 362 002a 07F11407 		add	r7, r7, #20
 363 002e BD46     		mov	sp, r7
 364 0030 80BC     		pop	{r7}
 365 0032 7047     		bx	lr
 366              		.cfi_endproc
 367              	.LFE5:
 369              		.section	.text.SiPin_ToggleFieldBits,"ax",%progbits
 370              		.align	2
 371              		.global	SiPin_ToggleFieldBits
 372              		.thumb
 373              		.thumb_func
 375              	SiPin_ToggleFieldBits:
 376              	.LFB6:
 312:../Generated_Code/SiPin.c **** 
 313:../Generated_Code/SiPin.c **** /*
 314:../Generated_Code/SiPin.c **** ** ===================================================================
 315:../Generated_Code/SiPin.c **** **     Method      :  SiPin_ToggleFieldBits (component GPIO_LDD)
 316:../Generated_Code/SiPin.c **** **
 317:../Generated_Code/SiPin.c **** **     Description :
 318:../Generated_Code/SiPin.c **** **         This method inverts the specified bits of the specified bit
 319:../Generated_Code/SiPin.c **** **         field to other level.
 320:../Generated_Code/SiPin.c **** **     Parameters  :
 321:../Generated_Code/SiPin.c **** **         NAME            - DESCRIPTION
 322:../Generated_Code/SiPin.c **** **       * DeviceDataPtr   - Device data structure
 323:../Generated_Code/SiPin.c **** **                           pointer returned by <Init> method.
 324:../Generated_Code/SiPin.c **** **         Field           - Bit field to write. Bit fields are
 325:../Generated_Code/SiPin.c **** **                           defined during design time and for each bit
 326:../Generated_Code/SiPin.c **** **                           field there is a generated constant.
 327:../Generated_Code/SiPin.c **** **         Mask            - Aligned mask of bits to inverting the
 328:../Generated_Code/SiPin.c **** **                           current level. Each field pin has
 329:../Generated_Code/SiPin.c **** **                           corresponding bit in the mask. Bit value 0
 330:../Generated_Code/SiPin.c **** **                           means not selected bit, bit value 1 means
 331:../Generated_Code/SiPin.c **** **                           selected bit. The bit 0 corresponds with
 332:../Generated_Code/SiPin.c **** **                           the pin which has index 0 within the given
 333:../Generated_Code/SiPin.c **** **                           bit field, the bit 1 corresponds with the
 334:../Generated_Code/SiPin.c **** **                           pin which has index 1 within the given bit
 335:../Generated_Code/SiPin.c **** **                           field, etc.
 336:../Generated_Code/SiPin.c **** **     Returns     : Nothing
 337:../Generated_Code/SiPin.c **** ** ===================================================================
 338:../Generated_Code/SiPin.c **** */
 339:../Generated_Code/SiPin.c **** void SiPin_ToggleFieldBits(LDD_TDeviceData *DeviceDataPtr, LDD_GPIO_TBitField Field, SiPin_TFieldVa
 340:../Generated_Code/SiPin.c **** {
 377              		.loc 1 340 0
 378              		.cfi_startproc
 379              		@ args = 0, pretend = 0, frame = 16
 380              		@ frame_needed = 1, uses_anonymous_args = 0
 381              		@ link register save eliminated.
 382 0000 80B4     		push	{r7}
 383              	.LCFI18:
 384              		.cfi_def_cfa_offset 4
 385              		.cfi_offset 7, -4
 386 0002 85B0     		sub	sp, sp, #20
 387              	.LCFI19:
 388              		.cfi_def_cfa_offset 24
 389 0004 00AF     		add	r7, sp, #0
 390              	.LCFI20:
 391              		.cfi_def_cfa_register 7
 392 0006 F860     		str	r0, [r7, #12]
 393 0008 B960     		str	r1, [r7, #8]
 394 000a 7A60     		str	r2, [r7, #4]
 341:../Generated_Code/SiPin.c ****   (void)DeviceDataPtr;                 /* Parameter is not used, suppress unused argument warning *
 342:../Generated_Code/SiPin.c ****   switch (Field) {                     /* no break */
 395              		.loc 1 342 0
 396 000c BB68     		ldr	r3, [r7, #8]
 397 000e 002B     		cmp	r3, #0
 398 0010 0AD1     		bne	.L27
 399              	.L25:
 343:../Generated_Code/SiPin.c ****     case Si: {                         /* bit field #0 */
 344:../Generated_Code/SiPin.c ****       GPIO_PDD_TogglePortDataOutputMask(SiPin_MODULE_BASE_ADDRESS,
 400              		.loc 1 344 0
 401 0012 4FF24003 		movw	r3, #61504
 402 0016 C4F20F03 		movt	r3, 16399
 403 001a 7A68     		ldr	r2, [r7, #4]
 404 001c 4FEA8202 		lsl	r2, r2, #2
 405 0020 02F00402 		and	r2, r2, #4
 406 0024 DA60     		str	r2, [r3, #12]
 345:../Generated_Code/SiPin.c ****         ((SiPin_TPortValue)SiPin_Si_MASK)
 346:../Generated_Code/SiPin.c ****         & ((SiPin_TPortValue)(Mask << SiPin_Si_START_BIT))
 347:../Generated_Code/SiPin.c ****       );
 348:../Generated_Code/SiPin.c ****       break;
 407              		.loc 1 348 0
 408 0026 00E0     		b	.L23
 409              	.L27:
 349:../Generated_Code/SiPin.c ****     }
 350:../Generated_Code/SiPin.c ****     default:
 351:../Generated_Code/SiPin.c ****       break;                           /* Invalid Field is not treated, result is undefined */
 410              		.loc 1 351 0
 411 0028 00BF     		nop
 412              	.L23:
 352:../Generated_Code/SiPin.c ****   } /* switch (Field) */
 353:../Generated_Code/SiPin.c **** }
 413              		.loc 1 353 0
 414 002a 07F11407 		add	r7, r7, #20
 415 002e BD46     		mov	sp, r7
 416 0030 80BC     		pop	{r7}
 417 0032 7047     		bx	lr
 418              		.cfi_endproc
 419              	.LFE6:
 421              		.section	.text.SiPin_SetFieldInputDirection,"ax",%progbits
 422              		.align	2
 423              		.global	SiPin_SetFieldInputDirection
 424              		.thumb
 425              		.thumb_func
 427              	SiPin_SetFieldInputDirection:
 428              	.LFB7:
 354:../Generated_Code/SiPin.c **** 
 355:../Generated_Code/SiPin.c **** /*
 356:../Generated_Code/SiPin.c **** ** ===================================================================
 357:../Generated_Code/SiPin.c **** **     Method      :  SiPin_SetFieldInputDirection (component GPIO_LDD)
 358:../Generated_Code/SiPin.c **** **
 359:../Generated_Code/SiPin.c **** **     Description :
 360:../Generated_Code/SiPin.c **** **         This method sets all pins of the field to the input
 361:../Generated_Code/SiPin.c **** **         direction.
 362:../Generated_Code/SiPin.c **** **     Parameters  :
 363:../Generated_Code/SiPin.c **** **         NAME            - DESCRIPTION
 364:../Generated_Code/SiPin.c **** **       * DeviceDataPtr   - Device data structure
 365:../Generated_Code/SiPin.c **** **                           pointer returned by <Init> method.
 366:../Generated_Code/SiPin.c **** **         Field           - Bit field to write. Bit fields are
 367:../Generated_Code/SiPin.c **** **                           defined during design time and for each bit
 368:../Generated_Code/SiPin.c **** **                           field there is a generated constant.
 369:../Generated_Code/SiPin.c **** **     Returns     : Nothing
 370:../Generated_Code/SiPin.c **** ** ===================================================================
 371:../Generated_Code/SiPin.c **** */
 372:../Generated_Code/SiPin.c **** void SiPin_SetFieldInputDirection(LDD_TDeviceData *DeviceDataPtr, LDD_GPIO_TBitField Field)
 373:../Generated_Code/SiPin.c **** {
 429              		.loc 1 373 0
 430              		.cfi_startproc
 431              		@ args = 0, pretend = 0, frame = 8
 432              		@ frame_needed = 1, uses_anonymous_args = 0
 433              		@ link register save eliminated.
 434 0000 80B4     		push	{r7}
 435              	.LCFI21:
 436              		.cfi_def_cfa_offset 4
 437              		.cfi_offset 7, -4
 438 0002 83B0     		sub	sp, sp, #12
 439              	.LCFI22:
 440              		.cfi_def_cfa_offset 16
 441 0004 00AF     		add	r7, sp, #0
 442              	.LCFI23:
 443              		.cfi_def_cfa_register 7
 444 0006 7860     		str	r0, [r7, #4]
 445 0008 3960     		str	r1, [r7, #0]
 374:../Generated_Code/SiPin.c ****   (void)DeviceDataPtr;                 /* Parameter is not used, suppress unused argument warning *
 375:../Generated_Code/SiPin.c ****   switch (Field) {                     /* no break */
 446              		.loc 1 375 0
 447 000a 3B68     		ldr	r3, [r7, #0]
 448 000c 002B     		cmp	r3, #0
 449 000e 0CD1     		bne	.L32
 450              	.L30:
 376:../Generated_Code/SiPin.c ****     case Si: {                         /* bit field #0 */
 377:../Generated_Code/SiPin.c ****       GPIO_PDD_SetPortInputDirectionMask(SiPin_MODULE_BASE_ADDRESS,
 451              		.loc 1 377 0
 452 0010 4FF24003 		movw	r3, #61504
 453 0014 C4F20F03 		movt	r3, 16399
 454 0018 4FF24002 		movw	r2, #61504
 455 001c C4F20F02 		movt	r2, 16399
 456 0020 5269     		ldr	r2, [r2, #20]
 457 0022 22F00402 		bic	r2, r2, #4
 458 0026 5A61     		str	r2, [r3, #20]
 378:../Generated_Code/SiPin.c ****         SiPin_Si_MASK
 379:../Generated_Code/SiPin.c ****       );
 380:../Generated_Code/SiPin.c ****       break;
 459              		.loc 1 380 0
 460 0028 00E0     		b	.L28
 461              	.L32:
 381:../Generated_Code/SiPin.c ****     }
 382:../Generated_Code/SiPin.c ****     default:
 383:../Generated_Code/SiPin.c ****       break;                           /* Invalid Field is not treated, result is undefined */
 462              		.loc 1 383 0
 463 002a 00BF     		nop
 464              	.L28:
 384:../Generated_Code/SiPin.c ****   } /* switch (Field) */
 385:../Generated_Code/SiPin.c **** }
 465              		.loc 1 385 0
 466 002c 07F10C07 		add	r7, r7, #12
 467 0030 BD46     		mov	sp, r7
 468 0032 80BC     		pop	{r7}
 469 0034 7047     		bx	lr
 470              		.cfi_endproc
 471              	.LFE7:
 473 0036 00BF     		.section	.text.SiPin_SetFieldOutputDirection,"ax",%progbits
 474              		.align	2
 475              		.global	SiPin_SetFieldOutputDirection
 476              		.thumb
 477              		.thumb_func
 479              	SiPin_SetFieldOutputDirection:
 480              	.LFB8:
 386:../Generated_Code/SiPin.c **** 
 387:../Generated_Code/SiPin.c **** /*
 388:../Generated_Code/SiPin.c **** ** ===================================================================
 389:../Generated_Code/SiPin.c **** **     Method      :  SiPin_SetFieldOutputDirection (component GPIO_LDD)
 390:../Generated_Code/SiPin.c **** **
 391:../Generated_Code/SiPin.c **** **     Description :
 392:../Generated_Code/SiPin.c **** **         This method sets all pins of the field to the output
 393:../Generated_Code/SiPin.c **** **         direction.
 394:../Generated_Code/SiPin.c **** **     Parameters  :
 395:../Generated_Code/SiPin.c **** **         NAME            - DESCRIPTION
 396:../Generated_Code/SiPin.c **** **       * DeviceDataPtr   - Device data structure
 397:../Generated_Code/SiPin.c **** **                           pointer returned by <Init> method.
 398:../Generated_Code/SiPin.c **** **         Field           - Bit field to set to the output
 399:../Generated_Code/SiPin.c **** **                           direction. Bit fields are defined during
 400:../Generated_Code/SiPin.c **** **                           design time and for each bit field there is
 401:../Generated_Code/SiPin.c **** **                           a generated constant.
 402:../Generated_Code/SiPin.c **** **         Value           - Aligned data value to appear on the
 403:../Generated_Code/SiPin.c **** **                           bit field pins after they have been
 404:../Generated_Code/SiPin.c **** **                           switched to the output direction.
 405:../Generated_Code/SiPin.c **** **     Returns     : Nothing
 406:../Generated_Code/SiPin.c **** ** ===================================================================
 407:../Generated_Code/SiPin.c **** */
 408:../Generated_Code/SiPin.c **** void SiPin_SetFieldOutputDirection(LDD_TDeviceData *DeviceDataPtr, LDD_GPIO_TBitField Field, SiPin_
 409:../Generated_Code/SiPin.c **** {
 481              		.loc 1 409 0
 482              		.cfi_startproc
 483              		@ args = 0, pretend = 0, frame = 16
 484              		@ frame_needed = 1, uses_anonymous_args = 0
 485              		@ link register save eliminated.
 486 0000 80B4     		push	{r7}
 487              	.LCFI24:
 488              		.cfi_def_cfa_offset 4
 489              		.cfi_offset 7, -4
 490 0002 85B0     		sub	sp, sp, #20
 491              	.LCFI25:
 492              		.cfi_def_cfa_offset 24
 493 0004 00AF     		add	r7, sp, #0
 494              	.LCFI26:
 495              		.cfi_def_cfa_register 7
 496 0006 F860     		str	r0, [r7, #12]
 497 0008 B960     		str	r1, [r7, #8]
 498 000a 7A60     		str	r2, [r7, #4]
 410:../Generated_Code/SiPin.c ****   (void)DeviceDataPtr;                 /* Parameter is not used, suppress unused argument warning *
 411:../Generated_Code/SiPin.c ****   switch (Field) {                     /* no break */
 499              		.loc 1 411 0
 500 000c BB68     		ldr	r3, [r7, #8]
 501 000e 002B     		cmp	r3, #0
 502 0010 1ED1     		bne	.L37
 503              	.L35:
 412:../Generated_Code/SiPin.c ****     case Si: {                         /* bit field #0 */
 413:../Generated_Code/SiPin.c ****       GPIO_PDD_SetPortDataOutput(SiPin_MODULE_BASE_ADDRESS,
 504              		.loc 1 413 0
 505 0012 4FF24003 		movw	r3, #61504
 506 0016 C4F20F03 		movt	r3, 16399
 507 001a 4FF24002 		movw	r2, #61504
 508 001e C4F20F02 		movt	r2, 16399
 509 0022 1268     		ldr	r2, [r2, #0]
 510 0024 22F00401 		bic	r1, r2, #4
 511 0028 7A68     		ldr	r2, [r7, #4]
 512 002a 4FEA8202 		lsl	r2, r2, #2
 513 002e 02F00402 		and	r2, r2, #4
 514 0032 0A43     		orrs	r2, r2, r1
 515 0034 1A60     		str	r2, [r3, #0]
 414:../Generated_Code/SiPin.c ****         ((SiPin_TPortValue)(
 415:../Generated_Code/SiPin.c ****           GPIO_PDD_GetPortDataOutput(SiPin_MODULE_BASE_ADDRESS)
 416:../Generated_Code/SiPin.c ****           & ((SiPin_TPortValue)(
 417:../Generated_Code/SiPin.c ****             ~((SiPin_TPortValue)SiPin_Si_MASK)
 418:../Generated_Code/SiPin.c ****           ))
 419:../Generated_Code/SiPin.c ****         ))
 420:../Generated_Code/SiPin.c ****         | (
 421:../Generated_Code/SiPin.c ****           ((SiPin_TPortValue)(Value << SiPin_Si_START_BIT))
 422:../Generated_Code/SiPin.c ****           & ((SiPin_TPortValue)SiPin_Si_MASK)
 423:../Generated_Code/SiPin.c ****         )
 424:../Generated_Code/SiPin.c ****       );
 425:../Generated_Code/SiPin.c ****       GPIO_PDD_SetPortOutputDirectionMask(SiPin_MODULE_BASE_ADDRESS,
 516              		.loc 1 425 0
 517 0036 4FF24003 		movw	r3, #61504
 518 003a C4F20F03 		movt	r3, 16399
 519 003e 4FF24002 		movw	r2, #61504
 520 0042 C4F20F02 		movt	r2, 16399
 521 0046 5269     		ldr	r2, [r2, #20]
 522 0048 42F00402 		orr	r2, r2, #4
 523 004c 5A61     		str	r2, [r3, #20]
 426:../Generated_Code/SiPin.c ****         SiPin_Si_MASK
 427:../Generated_Code/SiPin.c ****       );
 428:../Generated_Code/SiPin.c ****       break;
 524              		.loc 1 428 0
 525 004e 00E0     		b	.L33
 526              	.L37:
 429:../Generated_Code/SiPin.c ****     }
 430:../Generated_Code/SiPin.c ****     default:
 431:../Generated_Code/SiPin.c ****       break;                           /* Invalid Field is not treated, result is undefined */
 527              		.loc 1 431 0
 528 0050 00BF     		nop
 529              	.L33:
 432:../Generated_Code/SiPin.c ****   } /* switch (Field) */
 433:../Generated_Code/SiPin.c **** }
 530              		.loc 1 433 0
 531 0052 07F11407 		add	r7, r7, #20
 532 0056 BD46     		mov	sp, r7
 533 0058 80BC     		pop	{r7}
 534 005a 7047     		bx	lr
 535              		.cfi_endproc
 536              	.LFE8:
 538              		.section	.text.SiPin_ConnectPin,"ax",%progbits
 539              		.align	2
 540              		.global	SiPin_ConnectPin
 541              		.thumb
 542              		.thumb_func
 544              	SiPin_ConnectPin:
 545              	.LFB9:
 434:../Generated_Code/SiPin.c **** 
 435:../Generated_Code/SiPin.c **** /*
 436:../Generated_Code/SiPin.c **** ** ===================================================================
 437:../Generated_Code/SiPin.c **** **     Method      :  SiPin_ConnectPin (component GPIO_LDD)
 438:../Generated_Code/SiPin.c **** **
 439:../Generated_Code/SiPin.c **** **     Description :
 440:../Generated_Code/SiPin.c **** **         This method reconnects the requested pin associated with the
 441:../Generated_Code/SiPin.c **** **         selected peripheral in this component. This method is only
 442:../Generated_Code/SiPin.c **** **         available for CPU derivatives and peripherals that support
 443:../Generated_Code/SiPin.c **** **         the runtime pin sharing with other internal on-chip
 444:../Generated_Code/SiPin.c **** **         peripherals.
 445:../Generated_Code/SiPin.c **** **     Parameters  :
 446:../Generated_Code/SiPin.c **** **         NAME            - DESCRIPTION
 447:../Generated_Code/SiPin.c **** **       * DeviceDataPtr   - Device data structure
 448:../Generated_Code/SiPin.c **** **                           pointer returned by <Init> method.
 449:../Generated_Code/SiPin.c **** **         PinMask         - Mask for the requested pins. The
 450:../Generated_Code/SiPin.c **** **                           peripheral pins are reconnected according
 451:../Generated_Code/SiPin.c **** **                           to this mask.
 452:../Generated_Code/SiPin.c **** **     Returns     :
 453:../Generated_Code/SiPin.c **** **         ---             - Error code, possible values:
 454:../Generated_Code/SiPin.c **** **                           ERR_OK - OK
 455:../Generated_Code/SiPin.c **** **                           ERR_PARAM_MASK - Invalid pin mask
 456:../Generated_Code/SiPin.c **** ** ===================================================================
 457:../Generated_Code/SiPin.c **** */
 458:../Generated_Code/SiPin.c **** LDD_TError SiPin_ConnectPin(LDD_TDeviceData *DeviceDataPtr, LDD_TPinMask PinMask)
 459:../Generated_Code/SiPin.c **** {
 546              		.loc 1 459 0
 547              		.cfi_startproc
 548              		@ args = 0, pretend = 0, frame = 8
 549              		@ frame_needed = 1, uses_anonymous_args = 0
 550              		@ link register save eliminated.
 551 0000 80B4     		push	{r7}
 552              	.LCFI27:
 553              		.cfi_def_cfa_offset 4
 554              		.cfi_offset 7, -4
 555 0002 83B0     		sub	sp, sp, #12
 556              	.LCFI28:
 557              		.cfi_def_cfa_offset 16
 558 0004 00AF     		add	r7, sp, #0
 559              	.LCFI29:
 560              		.cfi_def_cfa_register 7
 561 0006 7860     		str	r0, [r7, #4]
 562 0008 3960     		str	r1, [r7, #0]
 460:../Generated_Code/SiPin.c ****   (void)DeviceDataPtr;                 /* Parameter is not used, suppress unused argument warning *
 461:../Generated_Code/SiPin.c ****   /* Pin mask test - this test can be disabled by setting the "Ignore range checking"
 462:../Generated_Code/SiPin.c ****      property to the "yes" value in the "Configuration inspector" */
 463:../Generated_Code/SiPin.c ****   if ((PinMask & ((LDD_TPinMask)~((LDD_TPinMask)SiPin_ALLOCATED_PINS_MASK))) != 0U) {
 563              		.loc 1 463 0
 564 000a 3B68     		ldr	r3, [r7, #0]
 565 000c 23F00403 		bic	r3, r3, #4
 566 0010 002B     		cmp	r3, #0
 567 0012 02D0     		beq	.L39
 464:../Generated_Code/SiPin.c ****     return ERR_PARAM_MASK;
 568              		.loc 1 464 0
 569 0014 4FF08003 		mov	r3, #128
 570 0018 16E0     		b	.L40
 571              	.L39:
 465:../Generated_Code/SiPin.c ****   }
 466:../Generated_Code/SiPin.c ****   if ((PinMask & LDD_GPIO_PIN_2) != 0U) {
 572              		.loc 1 466 0
 573 001a 3B68     		ldr	r3, [r7, #0]
 574 001c 03F00403 		and	r3, r3, #4
 575 0020 002B     		cmp	r3, #0
 576 0022 0FD0     		beq	.L41
 467:../Generated_Code/SiPin.c ****     clrSetReg32Bits(PORTB_PCR2, 0x01000600U, 0x0100U); /* MUX=0x01U */
 577              		.loc 1 467 0
 578 0024 4FF42043 		mov	r3, #40960
 579 0028 C4F20403 		movt	r3, 16388
 580 002c 4FF42042 		mov	r2, #40960
 581 0030 C4F20402 		movt	r2, 16388
 582 0034 9268     		ldr	r2, [r2, #8]
 583 0036 22F08072 		bic	r2, r2, #16777216
 584 003a 22F4E062 		bic	r2, r2, #1792
 585 003e 42F48072 		orr	r2, r2, #256
 586 0042 9A60     		str	r2, [r3, #8]
 587              	.L41:
 468:../Generated_Code/SiPin.c ****   }
 469:../Generated_Code/SiPin.c ****   return ERR_OK;
 588              		.loc 1 469 0
 589 0044 4FF00003 		mov	r3, #0
 590              	.L40:
 470:../Generated_Code/SiPin.c **** }
 591              		.loc 1 470 0
 592 0048 1846     		mov	r0, r3
 593 004a 07F10C07 		add	r7, r7, #12
 594 004e BD46     		mov	sp, r7
 595 0050 80BC     		pop	{r7}
 596 0052 7047     		bx	lr
 597              		.cfi_endproc
 598              	.LFE9:
 600              		.text
 601              	.Letext0:
 602              		.file 2 "C:/Freescale/CW MCU v10.3_121211/MCU/ARM_GCC_Support/ewl/EWL_C/include/cstdint"
 603              		.file 3 "../Generated_Code/IO_Map.h"
 604              		.file 4 "../Generated_Code/PE_LDD.h"
 605              		.file 5 "../Generated_Code/SiPin.h"